(dp0
I0
(dp1
I0
(dp2
I0
(dp3
S'count'
p4
F37.0
sS'variance'
p5
F0.0
sS'average'
p6
F0.0
sS'total'
p7
F0.0
ssI40
(dp8
g4
F38.0
sg5
F0.0
sg6
F0.0
sg7
F0.0
ssI10
(dp9
g4
F38.0
sg5
F0.02631578947368421
sg6
F0.02631578947368421
sg7
F1.0
ssI50
(dp10
g4
F38.0
sg5
F0.0
sg6
F0.0
sg7
F0.0
ssI20
(dp11
g4
F37.0
sg5
F0.0
sg6
F0.0
sg7
F0.0
ssI30
(dp12
g4
F38.0
sg5
F0.0
sg6
F0.0
sg7
F0.0
sssI1
(dp13
I0
(dp14
g4
F39.0
sg5
F0.0
sg6
F0.0
sg7
F0.0
ssI40
(dp15
g4
F39.0
sg5
F0.0
sg6
F0.0
sg7
F0.0
ssI10
(dp16
g4
F38.0
sg5
F0.0
sg6
F0.0
sg7
F0.0
ssI50
(dp17
g4
F38.0
sg5
F0.0
sg6
F0.0
sg7
F0.0
ssI20
(dp18
g4
F39.0
sg5
F0.0
sg6
F0.0
sg7
F0.0
ssI30
(dp19
g4
F38.0
sg5
F0.02631578947368421
sg6
F0.02631578947368421
sg7
F1.0
sssI2
(dp20
I0
(dp21
g4
F28.0
sg5
F0.0
sg6
F0.0
sg7
F0.0
ssI40
(dp22
g4
F31.0
sg5
F0.0
sg6
F0.0
sg7
F0.0
ssI10
(dp23
g4
F33.0
sg5
F0.13257575757575757
sg6
F0.15151515151515152
sg7
F5.0
ssI50
(dp24
g4
F32.0
sg5
F0.0
sg6
F0.0
sg7
F0.0
ssI20
(dp25
g4
F33.0
sg5
F0.0
sg6
F0.0
sg7
F0.0
ssI30
(dp26
g4
F33.0
sg5
F0.0
sg6
F0.0
sg7
F0.0
sssI3
(dp27
I0
(dp28
g4
F38.0
sg5
F0.17069701280227598
sg6
F0.2105263157894737
sg7
F8.0
ssI40
(dp29
g4
F39.0
sg5
F0.0
sg6
F0.0
sg7
F0.0
ssI10
(dp30
g4
F40.0
sg5
F0.0
sg6
F0.0
sg7
F0.0
ssI50
(dp31
g4
F37.0
sg5
F0.0
sg6
F0.0
sg7
F0.0
ssI20
(dp32
g4
F39.0
sg5
F0.0
sg6
F0.0
sg7
F0.0
ssI30
(dp33
g4
F40.0
sg5
F0.0
sg6
F0.0
sg7
F0.0
sssI4
(dp34
I0
(dp35
g4
F38.0
sg5
F0.02631578947368421
sg6
F0.02631578947368421
sg7
F1.0
ssI40
(dp36
g4
F40.0
sg5
F0.14807692307692308
sg6
F0.17500000000000002
sg7
F7.0
ssI10
(dp37
g4
F39.0
sg5
F0.0
sg6
F0.0
sg7
F0.0
ssI50
(dp38
g4
F39.0
sg5
F0.10256410256410256
sg6
F0.05128205128205128
sg7
F2.0
ssI20
(dp39
g4
F39.0
sg5
F0.025641025641025637
sg6
F0.02564102564102564
sg7
F1.0
ssI30
(dp40
g4
F40.0
sg5
F0.0
sg6
F0.0
sg7
F0.0
sssI5
(dp41
I0
(dp42
g4
F40.0
sg5
F0.024999999999999998
sg6
F0.024999999999999998
sg7
F1.0
ssI40
(dp43
g4
F39.0
sg5
F0.41025641025641013
sg6
F0.10256410256410262
sg7
F4.0
ssI10
(dp44
g4
F40.0
sg5
F0.4897435897435898
sg6
F0.15000000000000005
sg7
F6.0
ssI50
(dp45
g4
F39.0
sg5
F0.10256410256410253
sg6
F0.05128205128205128
sg7
F2.0
ssI20
(dp46
g4
F40.0
sg5
F0.0
sg6
F0.0
sg7
F0.0
ssI30
(dp47
g4
F38.0
sg5
F0.0
sg6
F0.0
sg7
F0.0
sssI6
(dp48
I0
(dp49
g4
F40.0
sg5
F0.589102564102564
sg6
F0.22500000000000003
sg7
F9.0
ssI40
(dp50
g4
F40.0
sg5
F0.3532051282051282
sg6
F0.17500000000000004
sg7
F7.0
ssI10
(dp51
g4
F40.0
sg5
F0.4384615384615384
sg6
F0.15000000000000002
sg7
F6.0
ssI50
(dp52
g4
F40.0
sg5
F0.23333333333333336
sg6
F0.15000000000000002
sg7
F6.0
ssI20
(dp53
g4
F38.0
sg5
F0.41536273115220484
sg6
F0.26315789473684215
sg7
F10.0
ssI30
(dp54
g4
F39.0
sg5
F0.3616734143049933
sg6
F0.17948717948717954
sg7
F7.0
sssI7
(dp55
I0
(dp56
g4
F37.0
sg5
F0.8633633633633636
sg6
F0.4324324324324325
sg7
F16.0
ssI40
(dp57
g4
F39.0
sg5
F2.00944669365722
sg6
F0.7948717948717952
sg7
F31.0
ssI10
(dp58
g4
F39.0
sg5
F0.39271255060728744
sg6
F0.23076923076923075
sg7
F9.0
ssI50
(dp59
g4
F40.0
sg5
F0.758974358974359
sg6
F0.4
sg7
F16.0
ssI20
(dp60
g4
F40.0
sg5
F0.7173076923076923
sg6
F0.4750000000000001
sg7
F19.0
ssI30
(dp61
g4
F40.0
sg5
F1.0198717948717946
sg6
F0.5749999999999998
sg7
F23.0
sssI8
(dp62
I0
(dp63
g4
F39.0
sg5
F3.923076923076923
sg6
F0.8461538461538464
sg7
F33.0
ssI40
(dp64
g4
F41.0
sg5
F10.39390243902439
sg6
F1.3902439024390245
sg7
F57.0
ssI10
(dp65
g4
F41.0
sg5
F9.249999999999998
sg6
F1.0000000000000004
sg7
F41.0
ssI50
(dp66
g4
F42.0
sg5
F21.252032520325205
sg6
F1.6666666666666667
sg7
F70.0
ssI20
(dp67
g4
F41.0
sg5
F10.754878048780487
sg6
F1.5365853658536583
sg7
F63.0
ssI30
(dp68
g4
F42.0
sg5
F12.227642276422769
sg6
F1.6666666666666667
sg7
F70.0
sssI9
(dp69
I0
(dp70
g4
F43.0
sg5
F11.39867109634552
sg6
F1.488372093023256
sg7
F64.0
ssI40
(dp71
g4
F40.0
sg5
F24.737820512820512
sg6
F2.3249999999999997
sg7
F93.0
ssI10
(dp72
g4
F42.0
sg5
F104.79965156794424
sg6
F2.9285714285714275
sg7
F123.0
ssI50
(dp73
g4
F41.0
sg5
F12.462195121951217
sg6
F1.292682926829268
sg7
F53.0
ssI20
(dp74
g4
F39.0
sg5
F13.143049932523619
sg6
F1.4102564102564106
sg7
F55.0
ssI30
(dp75
g4
F41.0
sg5
F27.160975609756104
sg6
F2.195121951219512
sg7
F90.0
sssI10
(dp76
I0
(dp77
g4
F42.0
sg5
F0.5000000000000001
sg6
F0.49999999999999994
sg7
F21.0
ssI40
(dp78
g4
F41.0
sg5
F4.452439024390242
sg6
F1.4390243902439024
sg7
F59.0
ssI10
(dp79
g4
F40.0
sg5
F2.817948717948718
sg6
F1.0500000000000003
sg7
F42.0
ssI50
(dp80
g4
F39.0
sg5
F1.377867746288799
sg6
F0.8717948717948718
sg7
F34.0
ssI20
(dp81
g4
F42.0
sg5
F1.853658536585366
sg6
F1.0
sg7
F42.0
ssI30
(dp82
g4
F41.0
sg5
F9.489024390243902
sg6
F2.2439024390243896
sg7
F92.0
sssI11
(dp83
I0
(dp84
g4
F40.0
sg5
F1.4557692307692314
sg6
F1.0750000000000002
sg7
F43.0
ssI40
(dp85
g4
F41.0
sg5
F0.8243902439024391
sg6
F1.024390243902439
sg7
F42.0
ssI10
(dp86
g4
F41.0
sg5
F1.909756097560976
sg6
F1.1219512195121952
sg7
F46.0
ssI50
(dp87
g4
F41.0
sg5
F1.5743902439024389
sg6
F0.975609756097561
sg7
F40.0
ssI20
(dp88
g4
F41.0
sg5
F1.2451219512195122
sg6
F0.8292682926829272
sg7
F34.0
ssI30
(dp89
g4
F40.0
sg5
F0.7461538461538462
sg6
F0.8500000000000002
sg7
F34.0
sssI12
(dp90
I0
(dp91
g4
F41.0
sg5
F1.0390243902439023
sg6
F0.7560975609756097
sg7
F31.0
ssI40
(dp92
g4
F41.0
sg5
F1.147560975609756
sg6
F0.9512195121951222
sg7
F39.0
ssI10
(dp93
g4
F40.0
sg5
F0.9333333333333333
sg6
F0.7999999999999999
sg7
F32.0
ssI50
(dp94
g4
F40.0
sg5
F2.215384615384615
sg6
F1.1999999999999997
sg7
F48.0
ssI20
(dp95
g4
F41.0
sg5
F2.569512195121952
sg6
F1.0731707317073171
sg7
F44.0
ssI30
(dp96
g4
F40.0
sg5
F1.6608974358974358
sg6
F1.0749999999999997
sg7
F43.0
sssI13
(dp97
I0
(dp98
g4
F41.0
sg5
F1.4890243902439022
sg6
F0.7560975609756098
sg7
F31.0
ssI40
(dp99
g4
F40.0
sg5
F0.6051282051282052
sg6
F0.6
sg7
F24.0
ssI10
(dp100
g4
F40.0
sg5
F0.9737179487179491
sg6
F0.7250000000000001
sg7
F29.0
ssI50
(dp101
g4
F41.0
sg5
F0.9609756097560975
sg6
F0.8048780487804879
sg7
F33.0
ssI20
(dp102
g4
F40.0
sg5
F2.076282051282051
sg6
F1.0250000000000004
sg7
F41.0
ssI30
(dp103
g4
F40.0
sg5
F7.768589743589746
sg6
F1.2249999999999999
sg7
F49.0
sssI14
(dp104
I0
(dp105
g4
F41.0
sg5
F2.3975609756097556
sg6
F1.048780487804878
sg7
F43.0
ssI40
(dp106
g4
F41.0
sg5
F1.8280487804878045
sg6
F0.8536585365853658
sg7
F35.0
ssI10
(dp107
g4
F41.0
sg5
F0.6939024390243902
sg6
F0.39024390243902435
sg7
F16.0
ssI50
(dp108
g4
F41.0
sg5
F2.2597560975609765
sg6
F0.878048780487805
sg7
F36.0
ssI20
(dp109
g4
F40.0
sg5
F0.9717948717948719
sg6
F0.5499999999999999
sg7
F22.0
ssI30
(dp110
g4
F40.0
sg5
F2.0410256410256413
sg6
F0.9000000000000001
sg7
F36.0
sssI15
(dp111
I0
(dp112
g4
F40.0
sg5
F0.9333333333333333
sg6
F0.6999999999999998
sg7
F28.0
ssI40
(dp113
g4
F41.0
sg5
F1.7975609756097561
sg6
F1.0487804878048783
sg7
F43.0
ssI10
(dp114
g4
F39.0
sg5
F0.5641025641025643
sg6
F0.41025641025641035
sg7
F16.0
ssI50
(dp115
g4
F40.0
sg5
F1.8916666666666664
sg6
F1.1749999999999998
sg7
F47.0
ssI20
(dp116
g4
F41.0
sg5
F1.1719512195121946
sg6
F0.6829268292682926
sg7
F28.0
ssI30
(dp117
g4
F41.0
sg5
F0.6951219512195124
sg6
F0.8292682926829269
sg7
F34.0
sssI16
(dp118
I0
(dp119
g4
F41.0
sg5
F3.1695121951219516
sg6
F1.073170731707317
sg7
F44.0
ssI40
(dp120
g4
F41.0
sg5
F1.4243902439024387
sg6
F1.0243902439024395
sg7
F42.0
ssI10
(dp121
g4
F41.0
sg5
F0.748780487804878
sg6
F0.5853658536585363
sg7
F24.0
ssI50
(dp122
g4
F41.0
sg5
F0.9304878048780487
sg6
F0.6585365853658535
sg7
F27.0
ssI20
(dp123
g4
F41.0
sg5
F0.9524390243902439
sg6
F0.5609756097560975
sg7
F23.0
ssI30
(dp124
g4
F40.0
sg5
F1.4455128205128207
sg6
F1.1250000000000002
sg7
F45.0
sssI17
(dp125
I0
(dp126
g4
F41.0
sg5
F2.3524390243902435
sg6
F0.5609756097560975
sg7
F23.0
ssI40
(dp127
g4
F41.0
sg5
F8.048780487804878
sg6
F1.4146341463414638
sg7
F58.0
ssI10
(dp128
g4
F41.0
sg5
F1.825609756097561
sg6
F0.7804878048780488
sg7
F32.0
ssI50
(dp129
g4
F41.0
sg5
F2.859756097560976
sg6
F0.8780487804878049
sg7
F36.0
ssI20
(dp130
g4
F40.0
sg5
F4.079487179487178
sg6
F1.1500000000000004
sg7
F46.0
ssI30
(dp131
g4
F41.0
sg5
F7.593902439024392
sg6
F1.6097560975609762
sg7
F66.0
sssI18
(dp132
I0
(dp133
g4
F39.0
sg5
F3.534412955465586
sg6
F0.6923076923076922
sg7
F27.0
ssI40
(dp134
g4
F41.0
sg5
F2.001219512195122
sg6
F0.7317073170731707
sg7
F30.0
ssI10
(dp135
g4
F41.0
sg5
F1.9304878048780487
sg6
F0.6585365853658535
sg7
F27.0
ssI50
(dp136
g4
F40.0
sg5
F5.5487179487179485
sg6
F0.7999999999999999
sg7
F32.0
ssI20
(dp137
g4
F41.0
sg5
F2.5121951219512195
sg6
F0.7073170731707318
sg7
F29.0
ssI30
(dp138
g4
F41.0
sg5
F2.6402439024390256
sg6
F0.902439024390244
sg7
F37.0
sssI19
(dp139
I0
(dp140
g4
F41.0
sg5
F5.447560975609754
sg6
F0.9512195121951219
sg7
F39.0
ssI40
(dp141
g4
F41.0
sg5
F6.274390243902438
sg6
F1.0243902439024386
sg7
F42.0
ssI10
(dp142
g4
F40.0
sg5
F6.061538461538461
sg6
F0.7999999999999999
sg7
F32.0
ssI50
(dp143
g4
F41.0
sg5
F7.07439024390244
sg6
F1.0243902439024393
sg7
F42.0
ssI20
(dp144
g4
F41.0
sg5
F5.528048780487804
sg6
F0.8536585365853657
sg7
F35.0
ssI30
(dp145
g4
F40.0
sg5
F4.912820512820512
sg6
F0.8999999999999999
sg7
F36.0
sssI20
(dp146
I0
(dp147
g4
F41.0
sg5
F5.669512195121951
sg6
F0.9268292682926831
sg7
F38.0
ssI40
(dp148
g4
F41.0
sg5
F5.425609756097561
sg6
F0.7804878048780489
sg7
F32.0
ssI10
(dp149
g4
F40.0
sg5
F7.968589743589743
sg6
F0.9250000000000003
sg7
F37.0
ssI50
(dp150
g4
F40.0
sg5
F4.8076923076923075
sg6
F0.7499999999999998
sg7
F30.0
ssI20
(dp151
g4
F41.0
sg5
F4.359756097560975
sg6
F0.8780487804878049
sg7
F36.0
ssI30
(dp152
g4
F41.0
sg5
F5.175609756097561
sg6
F0.7804878048780486
sg7
F32.0
sssI21
(dp153
I0
(dp154
g4
F41.0
sg5
F4.571951219512193
sg6
F0.6829268292682927
sg7
F28.0
ssI40
(dp155
g4
F40.0
sg5
F5.204487179487178
sg6
F0.7749999999999998
sg7
F31.0
ssI10
(dp156
g4
F41.0
sg5
F4.625609756097562
sg6
F0.7804878048780489
sg7
F32.0
ssI50
(dp157
g4
F41.0
sg5
F5.510975609756097
sg6
F0.8048780487804877
sg7
F33.0
ssI20
(dp158
g4
F41.0
sg5
F6.710975609756099
sg6
F0.804878048780488
sg7
F33.0
ssI30
(dp159
g4
F41.0
sg5
F5.628048780487805
sg6
F0.853658536585366
sg7
F35.0
sssI22
(dp160
I0
(dp161
g4
F43.0
sg5
F11.897009966777405
sg6
F1.2325581395348837
sg7
F53.0
ssI40
(dp162
g4
F41.0
sg5
F8.450000000000001
sg6
F1.0000000000000004
sg7
F41.0
ssI10
(dp163
g4
F40.0
sg5
F3.8743589743589735
sg6
F0.65
sg7
F26.0
ssI50
(dp164
g4
F41.0
sg5
F6.339024390243901
sg6
F0.7560975609756098
sg7
F31.0
ssI20
(dp165
g4
F40.0
sg5
F7.122435897435898
sg6
F0.8250000000000004
sg7
F33.0
ssI30
(dp166
g4
F40.0
sg5
F7.57948717948718
sg6
F0.8999999999999995
sg7
F36.0
sssI23
(dp167
I0
(dp168
g4
F41.0
sg5
F4.459756097560975
sg6
F0.8780487804878048
sg7
F36.0
ssI40
(dp169
g4
F41.0
sg5
F5.489024390243902
sg6
F0.7560975609756098
sg7
F31.0
ssI10
(dp170
g4
F40.0
sg5
F4.676923076923076
sg6
F0.7000000000000002
sg7
F28.0
ssI50
(dp171
g4
F40.0
sg5
F5.064102564102564
sg6
F0.7499999999999998
sg7
F30.0
ssI20
(dp172
g4
F41.0
sg5
F4.5804878048780475
sg6
F0.6585365853658536
sg7
F27.0
ssI30
(dp173
g4
F41.0
sg5
F4.589024390243901
sg6
F0.7560975609756098
sg7
F31.0
ssssI1
(dp174
I0
(dp175
I0
(dp176
g4
F39.0
sg5
F5.195681511470984
sg6
F0.7435897435897435
sg7
F29.0
ssI40
(dp177
g4
F40.0
sg5
F6.917307692307693
sg6
F0.8250000000000002
sg7
F33.0
ssI10
(dp178
g4
F40.0
sg5
F4.676923076923076
sg6
F0.7999999999999999
sg7
F32.0
ssI50
(dp179
g4
F39.0
sg5
F7.765182186234818
sg6
F0.8461538461538464
sg7
F33.0
ssI20
(dp180
g4
F40.0
sg5
F5.0249999999999995
sg6
F0.7249999999999999
sg7
F29.0
ssI30
(dp181
g4
F39.0
sg5
F5.175438596491226
sg6
F0.6666666666666665
sg7
F26.0
sssI1
(dp182
I0
(dp183
g4
F41.0
sg5
F4.512195121951218
sg6
F0.7073170731707316
sg7
F29.0
ssI40
(dp184
g4
F39.0
sg5
F5.414304993252363
sg6
F0.8205128205128207
sg7
F32.0
ssI10
(dp185
g4
F40.0
sg5
F6.112820512820513
sg6
F0.8000000000000002
sg7
F32.0
ssI50
(dp186
g4
F40.0
sg5
F5.115384615384616
sg6
F0.7499999999999998
sg7
F30.0
ssI20
(dp187
g4
F39.0
sg5
F5.677462887989205
sg6
F0.8205128205128207
sg7
F32.0
ssI30
(dp188
g4
F40.0
sg5
F4.61474358974359
sg6
F0.7249999999999999
sg7
F29.0
sssI2
(dp189
I0
(dp190
g4
F26.0
sg5
F9.224615384615385
sg6
F1.2307692307692308
sg7
F32.0
ssI40
(dp191
g4
F31.0
sg5
F10.582795698924734
sg6
F1.1290322580645165
sg7
F35.0
ssI10
(dp192
g4
F33.0
sg5
F7.028409090909091
sg6
F1.1818181818181817
sg7
F39.0
ssI50
(dp193
g4
F31.0
sg5
F10.090322580645164
sg6
F1.0967741935483872
sg7
F34.0
ssI20
(dp194
g4
F33.0
sg5
F11.047348484848486
sg6
F1.121212121212121
sg7
F37.0
ssI30
(dp195
g4
F33.0
sg5
F8.0
sg6
F1.0000000000000002
sg7
F33.0
sssI3
(dp196
I0
(dp197
g4
F40.0
sg5
F5.0762820512820515
sg6
F0.725
sg7
F29.0
ssI40
(dp198
g4
F40.0
sg5
F4.717307692307691
sg6
F0.7249999999999999
sg7
F29.0
ssI10
(dp199
g4
F41.0
sg5
F7.428048780487805
sg6
F0.8536585365853657
sg7
F35.0
ssI50
(dp200
g4
F40.0
sg5
F7.374358974358975
sg6
F0.8999999999999997
sg7
F36.0
ssI20
(dp201
g4
F41.0
sg5
F6.395121951219512
sg6
F0.8292682926829267
sg7
F34.0
ssI30
(dp202
g4
F40.0
sg5
F5.845512820512821
sg6
F0.7249999999999999
sg7
F29.0
sssI4
(dp203
I0
(dp204
g4
F42.0
sg5
F5.654471544715447
sg6
F0.8333333333333334
sg7
F35.0
ssI40
(dp205
g4
F40.0
sg5
F4.512820512820513
sg6
F1.0000000000000007
sg7
F40.0
ssI10
(dp206
g4
F41.0
sg5
F4.612195121951219
sg6
F0.7073170731707316
sg7
F29.0
ssI50
(dp207
g4
F41.0
sg5
F4.612195121951219
sg6
F0.7073170731707316
sg7
F29.0
ssI20
(dp208
g4
F40.0
sg5
F5.6512820512820525
sg6
F0.8000000000000002
sg7
F32.0
ssI30
(dp209
g4
F41.0
sg5
F5.151219512195122
sg6
F0.7317073170731705
sg7
F30.0
sssI5
(dp210
I0
(dp211
g4
F40.0
sg5
F5.035256410256411
sg6
F0.8750000000000003
sg7
F35.0
ssI40
(dp212
g4
F40.0
sg5
F5.204487179487177
sg6
F0.7749999999999999
sg7
F31.0
ssI10
(dp213
g4
F41.0
sg5
F9.390243902439025
sg6
F0.9024390243902441
sg7
F37.0
ssI50
(dp214
g4
F41.0
sg5
F5.725609756097561
sg6
F0.7804878048780487
sg7
F32.0
ssI20
(dp215
g4
F41.0
sg5
F4.639024390243902
sg6
F0.7560975609756098
sg7
F31.0
ssI30
(dp216
g4
F41.0
sg5
F7.028048780487805
sg6
F0.8536585365853657
sg7
F35.0
sssI6
(dp217
I0
(dp218
g4
F40.0
sg5
F2.7282051282051287
sg6
F0.7000000000000001
sg7
F28.0
ssI40
(dp219
g4
F40.0
sg5
F2.03525641025641
sg6
F0.625
sg7
F25.0
ssI10
(dp220
g4
F40.0
sg5
F3.3583333333333334
sg6
F0.7749999999999999
sg7
F31.0
ssI50
(dp221
g4
F40.0
sg5
F3.371794871794873
sg6
F0.7500000000000001
sg7
F30.0
ssI20
(dp222
g4
F40.0
sg5
F2.8205128205128207
sg6
F0.5000000000000001
sg7
F20.0
ssI30
(dp223
g4
F40.0
sg5
F2.8557692307692313
sg6
F0.625
sg7
F25.0
sssI7
(dp224
I0
(dp225
g4
F41.0
sg5
F2.6451219512195125
sg6
F0.829268292682927
sg7
F34.0
ssI40
(dp226
g4
F41.0
sg5
F3.2756097560975603
sg6
F1.2195121951219512
sg7
F50.0
ssI10
(dp227
g4
F40.0
sg5
F2.912820512820512
sg6
F0.6000000000000001
sg7
F24.0
ssI50
(dp228
g4
F39.0
sg5
F3.078272604588394
sg6
F1.0256410256410258
sg7
F40.0
ssI20
(dp229
g4
F41.0
sg5
F2.9499999999999984
sg6
F0.9999999999999998
sg7
F41.0
ssI30
(dp230
g4
F41.0
sg5
F2.4097560975609764
sg6
F0.878048780487805
sg7
F36.0
sssI8
(dp231
I0
(dp232
g4
F35.0
sg5
F9.81008403361344
sg6
F1.314285714285714
sg7
F46.0
ssI40
(dp233
g4
F30.0
sg5
F12.878160919540237
sg6
F2.133333333333334
sg7
F64.0
ssI10
(dp234
g4
F40.0
sg5
F2.1634615384615383
sg6
F0.8750000000000001
sg7
F35.0
ssI50
(dp235
g4
F30.0
sg5
F12.79195402298851
sg6
F1.6333333333333335
sg7
F49.0
ssI20
(dp236
g4
F40.0
sg5
F2.019871794871794
sg6
F1.0749999999999995
sg7
F43.0
ssI30
(dp237
g4
F32.0
sg5
F6.023185483870969
sg6
F1.9062499999999998
sg7
F61.0
sssI9
(dp238
I0
(dp239
g4
F29.0
sg5
F7.529556650246306
sg6
F1.3793103448275859
sg7
F40.0
ssI40
(dp240
g4
F31.0
sg5
F20.18064516129033
sg6
F2.7741935483870965
sg7
F86.0
ssI10
(dp241
g4
F31.0
sg5
F6.679569892473117
sg6
F1.2903225806451615
sg7
F40.0
ssI50
(dp242
g4
F31.0
sg5
F16.156989247311824
sg6
F2.0967741935483875
sg7
F65.0
ssI20
(dp243
g4
F31.0
sg5
F7.580645161290323
sg6
F1.7741935483870968
sg7
F55.0
ssI30
(dp244
g4
F31.0
sg5
F23.38924731182795
sg6
F3.4516129032258065
sg7
F107.0
sssI10
(dp245
I0
(dp246
g4
F31.0
sg5
F10.997849462365593
sg6
F1.741935483870968
sg7
F54.0
ssI40
(dp247
g4
F31.0
sg5
F18.76989247311828
sg6
F2.6451612903225805
sg7
F82.0
ssI10
(dp248
g4
F31.0
sg5
F6.95698924731183
sg6
F2.0967741935483866
sg7
F65.0
ssI50
(dp249
g4
F31.0
sg5
F11.649462365591397
sg6
F2.1290322580645165
sg7
F66.0
ssI20
(dp250
g4
F31.0
sg5
F8.049462365591397
sg6
F1.8709677419354842
sg7
F58.0
ssI30
(dp251
g4
F31.0
sg5
F9.313978494623653
sg6
F3.225806451612903
sg7
F100.0
sssI11
(dp252
I0
(dp253
g4
F31.0
sg5
F5.455913978494624
sg6
F1.5483870967741935
sg7
F48.0
ssI40
(dp254
g4
F30.0
sg5
F5.54022988505747
sg6
F1.6666666666666667
sg7
F50.0
ssI10
(dp255
g4
F31.0
sg5
F6.991397849462365
sg6
F1.5161290322580645
sg7
F47.0
ssI50
(dp256
g4
F31.0
sg5
F4.597849462365591
sg6
F1.2580645161290323
sg7
F39.0
ssI20
(dp257
g4
F31.0
sg5
F7.122580645161292
sg6
F1.4516129032258063
sg7
F45.0
ssI30
(dp258
g4
F31.0
sg5
F6.473118279569891
sg6
F1.8387096774193548
sg7
F57.0
sssI12
(dp259
I0
(dp260
g4
F31.0
sg5
F3.6129032258064515
sg6
F1.2903225806451613
sg7
F40.0
ssI40
(dp261
g4
F32.0
sg5
F2.2217741935483875
sg6
F0.8125000000000001
sg7
F26.0
ssI10
(dp262
g4
F32.0
sg5
F3.0282258064516125
sg6
F1.0625
sg7
F34.0
ssI50
(dp263
g4
F31.0
sg5
F4.8623655913978485
sg6
F1.0645161290322585
sg7
F33.0
ssI20
(dp264
g4
F32.0
sg5
F3.899193548387095
sg6
F1.3125
sg7
F42.0
ssI30
(dp265
g4
F33.0
sg5
F3.4678030303030307
sg6
F1.3030303030303028
sg7
F43.0
sssI13
(dp266
I0
(dp267
g4
F33.0
sg5
F3.422348484848485
sg6
F0.8787878787878789
sg7
F29.0
ssI40
(dp268
g4
F32.0
sg5
F4.539314516129032
sg6
F0.90625
sg7
F29.0
ssI10
(dp269
g4
F32.0
sg5
F3.023185483870966
sg6
F0.5937500000000001
sg7
F19.0
ssI50
(dp270
g4
F32.0
sg5
F3.240927419354839
sg6
F0.71875
sg7
F23.0
ssI20
(dp271
g4
F32.0
sg5
F2.563508064516128
sg6
F0.7812500000000001
sg7
F25.0
ssI30
(dp272
g4
F32.0
sg5
F2.5554435483870965
sg6
F0.6562499999999999
sg7
F21.0
sssI14
(dp273
I0
(dp274
g4
F32.0
sg5
F3.125000000000001
sg6
F0.8125000000000001
sg7
F26.0
ssI40
(dp275
g4
F32.0
sg5
F6.168346774193548
sg6
F1.34375
sg7
F43.0
ssI10
(dp276
g4
F32.0
sg5
F4.629032258064515
sg6
F0.6250000000000001
sg7
F20.0
ssI50
(dp277
g4
F32.0
sg5
F4.861895161290321
sg6
F1.0937499999999998
sg7
F35.0
ssI20
(dp278
g4
F32.0
sg5
F4.10383064516129
sg6
F0.65625
sg7
F21.0
ssI30
(dp279
g4
F32.0
sg5
F3.4153225806451615
sg6
F0.5624999999999998
sg7
F18.0
sssI15
(dp280
I0
(dp281
g4
F31.0
sg5
F9.264516129032256
sg6
F1.2580645161290318
sg7
F39.0
ssI40
(dp282
g4
F32.0
sg5
F14.479838709677416
sg6
F1.6874999999999998
sg7
F54.0
ssI10
(dp283
g4
F32.0
sg5
F7.837701612903226
sg6
F0.96875
sg7
F31.0
ssI50
(dp284
g4
F32.0
sg5
F10.434475806451612
sg6
F1.21875
sg7
F39.0
ssI20
(dp285
g4
F32.0
sg5
F3.305443548387098
sg6
F0.7187500000000001
sg7
F23.0
ssI30
(dp286
g4
F32.0
sg5
F9.608870967741934
sg6
F1.5625
sg7
F50.0
sssI16
(dp287
I0
(dp288
g4
F31.0
sg5
F10.384946236559136
sg6
F1.4193548387096773
sg7
F44.0
ssI40
(dp289
g4
F32.0
sg5
F10.257056451612904
sg6
F1.53125
sg7
F49.0
ssI10
(dp290
g4
F32.0
sg5
F12.092741935483868
sg6
F1.3125
sg7
F42.0
ssI50
(dp291
g4
F32.0
sg5
F10.466733870967744
sg6
F1.2812499999999998
sg7
F41.0
ssI20
(dp292
g4
F32.0
sg5
F9.56350806451613
sg6
F1.28125
sg7
F41.0
ssI30
(dp293
g4
F32.0
sg5
F12.822580645161294
sg6
F1.875
sg7
F60.0
sssI17
(dp294
I0
(dp295
g4
F32.0
sg5
F3.2006048387096766
sg6
F0.6562500000000001
sg7
F21.0
ssI40
(dp296
g4
F32.0
sg5
F5.015120967741934
sg6
F1.2187500000000002
sg7
F39.0
ssI10
(dp297
g4
F31.0
sg5
F13.227956989247309
sg6
F1.193548387096774
sg7
F37.0
ssI50
(dp298
g4
F32.0
sg5
F6.603830645161289
sg6
F1.09375
sg7
F35.0
ssI20
(dp299
g4
F31.0
sg5
F13.922580645161291
sg6
F1.5483870967741937
sg7
F48.0
ssI30
(dp300
g4
F31.0
sg5
F6.055913978494622
sg6
F1.4516129032258067
sg7
F45.0
sssI18
(dp301
I0
(dp302
g4
F33.0
sg5
F3.4791666666666665
sg6
F0.6666666666666666
sg7
F22.0
ssI40
(dp303
g4
F32.0
sg5
F3.595766129032257
sg6
F0.7812500000000002
sg7
F25.0
ssI10
(dp304
g4
F32.0
sg5
F2.595766129032258
sg6
F0.7187499999999999
sg7
F23.0
ssI50
(dp305
g4
F31.0
sg5
F2.76989247311828
sg6
F0.6451612903225806
sg7
F20.0
ssI20
(dp306
g4
F32.0
sg5
F5.79032258064516
sg6
F0.8750000000000001
sg7
F28.0
ssI30
(dp307
g4
F32.0
sg5
F3.17641129032258
sg6
F0.7187499999999999
sg7
F23.0
sssI19
(dp308
I0
(dp309
g4
F32.0
sg5
F2.838709677419355
sg6
F0.4999999999999999
sg7
F16.0
ssI40
(dp310
g4
F32.0
sg5
F3.200604838709677
sg6
F0.6562500000000001
sg7
F21.0
ssI10
(dp311
g4
F32.0
sg5
F2.451612903225807
sg6
F0.5
sg7
F16.0
ssI50
(dp312
g4
F32.0
sg5
F3.0322580645161294
sg6
F0.5
sg7
F16.0
ssI20
(dp313
g4
F32.0
sg5
F3.0715725806451606
sg6
F0.6562499999999999
sg7
F21.0
ssI30
(dp314
g4
F32.0
sg5
F3.547379032258065
sg6
F0.46875
sg7
F15.0
sssI20
(dp315
I0
(dp316
g4
F32.0
sg5
F2.5312500000000004
sg6
F0.2812499999999999
sg7
F9.0
ssI40
(dp317
g4
F32.0
sg5
F5.281249999999999
sg6
F0.40625000000000017
sg7
F13.0
ssI10
(dp318
g4
F32.0
sg5
F2.0151209677419346
sg6
F0.28124999999999994
sg7
F9.0
ssI50
(dp319
g4
F32.0
sg5
F6.128024193548387
sg6
F0.46875
sg7
F15.0
ssI20
(dp320
g4
F32.0
sg5
F2.5312500000000004
sg6
F0.2812499999999999
sg7
F9.0
ssI30
(dp321
g4
F32.0
sg5
F1.9999999999999996
sg6
F0.2500000000000001
sg7
F8.0
sssI21
(dp322
I0
(dp323
g4
F32.0
sg5
F3.125
sg6
F0.3125
sg7
F10.0
ssI40
(dp324
g4
F32.0
sg5
F2.5312500000000004
sg6
F0.2812499999999999
sg7
F9.0
ssI10
(dp325
g4
F32.0
sg5
F5.281249999999999
sg6
F0.40625000000000017
sg7
F13.0
ssI50
(dp326
g4
F32.0
sg5
F3.7812499999999996
sg6
F0.34375
sg7
F11.0
ssI20
(dp327
g4
F32.0
sg5
F3.7812499999999996
sg6
F0.34375
sg7
F11.0
ssI30
(dp328
g4
F32.0
sg5
F3.7812499999999996
sg6
F0.34375
sg7
F11.0
sssI22
(dp329
I0
(dp330
g4
F32.0
sg5
F4.5000000000000036
sg6
F0.37500000000000006
sg7
F12.0
ssI40
(dp331
g4
F32.0
sg5
F3.160282258064517
sg6
F0.53125
sg7
F17.0
ssI10
(dp332
g4
F32.0
sg5
F3.7812499999999996
sg6
F0.34375
sg7
F11.0
ssI50
(dp333
g4
F32.0
sg5
F6.125
sg6
F0.43750000000000017
sg7
F14.0
ssI20
(dp334
g4
F32.0
sg5
F3.125
sg6
F0.3125
sg7
F10.0
ssI30
(dp335
g4
F32.0
sg5
F3.125
sg6
F0.3125
sg7
F10.0
sssI23
(dp336
I0
(dp337
g4
F32.0
sg5
F3.8024193548387086
sg6
F0.5624999999999999
sg7
F18.0
ssI40
(dp338
g4
F32.0
sg5
F1.9999999999999996
sg6
F0.2500000000000001
sg7
F8.0
ssI10
(dp339
g4
F32.0
sg5
F2.0151209677419346
sg6
F0.28124999999999994
sg7
F9.0
ssI50
(dp340
g4
F32.0
sg5
F2.5312500000000004
sg6
F0.2812499999999999
sg7
F9.0
ssI20
(dp341
g4
F32.0
sg5
F2.5312500000000004
sg6
F0.2812499999999999
sg7
F9.0
ssI30
(dp342
g4
F32.0
sg5
F1.9999999999999996
sg6
F0.2500000000000001
sg7
F8.0
ssssI2
(dp343
I0
(dp344
I0
(dp345
g4
F31.0
sg5
F2.6129032258064524
sg6
F0.2903225806451612
sg7
F9.0
ssI40
(dp346
g4
F31.0
sg5
F3.2258064516129035
sg6
F0.3225806451612903
sg7
F10.0
ssI10
(dp347
g4
F31.0
sg5
F3.2258064516129035
sg6
F0.3225806451612903
sg7
F10.0
ssI50
(dp348
g4
F31.0
sg5
F2.6129032258064524
sg6
F0.2903225806451612
sg7
F9.0
ssI20
(dp349
g4
F31.0
sg5
F3.2258064516129035
sg6
F0.3225806451612903
sg7
F10.0
ssI30
(dp350
g4
F31.0
sg5
F5.451612903225806
sg6
F0.4193548387096776
sg7
F13.0
sssI1
(dp351
I0
(dp352
g4
F30.0
sg5
F4.800000000000003
sg6
F0.4
sg7
F12.0
ssI40
(dp353
g4
F31.0
sg5
F3.2258064516129035
sg6
F0.3225806451612903
sg7
F10.0
ssI10
(dp354
g4
F31.0
sg5
F6.324731182795699
sg6
F0.48387096774193533
sg7
F15.0
ssI50
(dp355
g4
F31.0
sg5
F2.6129032258064524
sg6
F0.2903225806451612
sg7
F9.0
ssI20
(dp356
g4
F31.0
sg5
F3.2258064516129035
sg6
F0.3225806451612903
sg7
F10.0
ssI30
(dp357
g4
F31.0
sg5
F3.9032258064516125
sg6
F0.3548387096774194
sg7
F11.0
sssI2
(dp358
I0
(dp359
g4
F17.0
sg5
F7.117647058823529
sg6
F0.6470588235294118
sg7
F11.0
ssI40
(dp360
g4
F22.0
sg5
F4.545454545454545
sg6
F0.45454545454545453
sg7
F10.0
ssI10
(dp361
g4
F23.0
sg5
F4.312252964426878
sg6
F0.6956521739130435
sg7
F16.0
ssI50
(dp362
g4
F22.0
sg5
F4.545454545454545
sg6
F0.45454545454545453
sg7
F10.0
ssI20
(dp363
g4
F23.0
sg5
F8.521739130434783
sg6
F0.6086956521739132
sg7
F14.0
ssI30
(dp364
g4
F23.0
sg5
F5.260869565217391
sg6
F0.4782608695652174
sg7
F11.0
sssI3
(dp365
I0
(dp366
g4
F31.0
sg5
F2.1247311827956987
sg6
F0.4838709677419356
sg7
F15.0
ssI40
(dp367
g4
F31.0
sg5
F3.2258064516129035
sg6
F0.3225806451612903
sg7
F10.0
ssI10
(dp368
g4
F31.0
sg5
F2.6129032258064524
sg6
F0.2903225806451612
sg7
F9.0
ssI50
(dp369
g4
F29.0
sg5
F2.2068965517241375
sg6
F0.27586206896551735
sg7
F8.0
ssI20
(dp370
g4
F31.0
sg5
F2.0645161290322576
sg6
F0.25806451612903236
sg7
F8.0
ssI30
(dp371
g4
F31.0
sg5
F3.2365591397849465
sg6
F0.3548387096774193
sg7
F11.0
sssI4
(dp372
I0
(dp373
g4
F33.0
sg5
F3.666666666666666
sg6
F0.3333333333333333
sg7
F11.0
ssI40
(dp374
g4
F30.0
sg5
F3.3574712643678164
sg6
F0.5666666666666667
sg7
F17.0
ssI10
(dp375
g4
F31.0
sg5
F2.0645161290322576
sg6
F0.25806451612903236
sg7
F8.0
ssI50
(dp376
g4
F31.0
sg5
F4.6451612903225845
sg6
F0.38709677419354843
sg7
F12.0
ssI20
(dp377
g4
F31.0
sg5
F4.6451612903225845
sg6
F0.38709677419354843
sg7
F12.0
ssI30
(dp378
g4
F30.0
sg5
F2.133333333333333
sg6
F0.2666666666666668
sg7
F8.0
sssI5
(dp379
I0
(dp380
g4
F31.0
sg5
F3.9032258064516125
sg6
F0.3548387096774194
sg7
F11.0
ssI40
(dp381
g4
F31.0
sg5
F2.0645161290322576
sg6
F0.25806451612903236
sg7
F8.0
ssI10
(dp382
g4
F31.0
sg5
F3.3913978494623658
sg6
F0.5161290322580644
sg7
F16.0
ssI50
(dp383
g4
F31.0
sg5
F2.6129032258064524
sg6
F0.2903225806451612
sg7
F9.0
ssI20
(dp384
g4
F31.0
sg5
F2.6129032258064524
sg6
F0.2903225806451612
sg7
F9.0
ssI30
(dp385
g4
F31.0
sg5
F3.9032258064516125
sg6
F0.3548387096774194
sg7
F11.0
sssI6
(dp386
I0
(dp387
g4
F30.0
sg5
F3.3333333333333335
sg6
F0.3333333333333333
sg7
F10.0
ssI40
(dp388
g4
F31.0
sg5
F4.111827956989248
sg6
F0.6129032258064515
sg7
F19.0
ssI10
(dp389
g4
F31.0
sg5
F3.236559139784945
sg6
F0.3548387096774194
sg7
F11.0
ssI50
(dp390
g4
F31.0
sg5
F2.9225806451612897
sg6
F0.5483870967741937
sg7
F17.0
ssI20
(dp391
g4
F31.0
sg5
F2.0924731182795697
sg6
F0.3225806451612904
sg7
F10.0
ssI30
(dp392
g4
F31.0
sg5
F2.7892473118279573
sg6
F0.4516129032258066
sg7
F14.0
sssI7
(dp393
I0
(dp394
g4
F31.0
sg5
F5.559139784946234
sg6
F0.6774193548387099
sg7
F21.0
ssI40
(dp395
g4
F30.0
sg5
F1.0126436781609196
sg6
F0.7666666666666667
sg7
F23.0
ssI10
(dp396
g4
F29.0
sg5
F4.955665024630542
sg6
F0.7931034482758622
sg7
F23.0
ssI50
(dp397
g4
F29.0
sg5
F4.667487684729063
sg6
F1.1034482758620692
sg7
F32.0
ssI20
(dp398
g4
F29.0
sg5
F5.9088669950738915
sg6
F0.8620689655172417
sg7
F25.0
ssI30
(dp399
g4
F31.0
sg5
F2.666666666666665
sg6
F1.0
sg7
F31.0
sssI8
(dp400
I0
(dp401
g4
F32.0
sg5
F12.060483870967738
sg6
F1.4375
sg7
F46.0
ssI40
(dp402
g4
F29.0
sg5
F9.147783251231527
sg6
F1.827586206896552
sg7
F53.0
ssI10
(dp403
g4
F29.0
sg5
F17.822660098522167
sg6
F1.5862068965517238
sg7
F46.0
ssI50
(dp404
g4
F30.0
sg5
F15.512643678160924
sg6
F2.0666666666666664
sg7
F62.0
ssI20
(dp405
g4
F27.0
sg5
F7.378917378917378
sg6
F1.0740740740740742
sg7
F29.0
ssI30
(dp406
g4
F29.0
sg5
F11.142857142857142
sg6
F2.0
sg7
F58.0
sssI9
(dp407
I0
(dp408
g4
F28.0
sg5
F16.839947089947085
sg6
F1.8928571428571428
sg7
F53.0
ssI40
(dp409
g4
F29.0
sg5
F1.5517241379310345
sg6
F1.1379310344827585
sg7
F33.0
ssI10
(dp410
g4
F30.0
sg5
F7.471264367816089
sg6
F1.333333333333333
sg7
F40.0
ssI50
(dp411
g4
F30.0
sg5
F2.7827586206896546
sg6
F1.1000000000000003
sg7
F33.0
ssI20
(dp412
g4
F29.0
sg5
F9.315270935960593
sg6
F1.620689655172414
sg7
F47.0
ssI30
(dp413
g4
F29.0
sg5
F6.642857142857143
sg6
F1.9999999999999996
sg7
F58.0
sssI10
(dp414
I0
(dp415
g4
F27.0
sg5
F1.0370370370370372
sg6
F1.037037037037037
sg7
F28.0
ssI40
(dp416
g4
F28.0
sg5
F1.439153439153439
sg6
F1.571428571428571
sg7
F44.0
ssI10
(dp417
g4
F29.0
sg5
F3.332512315270937
sg6
F1.2413793103448276
sg7
F36.0
ssI50
(dp418
g4
F29.0
sg5
F5.615763546798028
sg6
F1.5172413793103452
sg7
F44.0
ssI20
(dp419
g4
F28.0
sg5
F1.8306878306878307
sg6
F1.1428571428571428
sg7
F32.0
ssI30
(dp420
g4
F29.0
sg5
F4.463054187192118
sg6
F2.0344827586206895
sg7
F59.0
sssI11
(dp421
I0
(dp422
g4
F28.0
sg5
F7.284391534391535
sg6
F1.6071428571428572
sg7
F45.0
ssI40
(dp423
g4
F29.0
sg5
F1.6773399014778327
sg6
F1.03448275862069
sg7
F30.0
ssI10
(dp424
g4
F30.0
sg5
F1.062068965517241
sg6
F0.8000000000000002
sg7
F24.0
ssI50
(dp425
g4
F29.0
sg5
F0.6502463054187192
sg6
F0.6896551724137931
sg7
F20.0
ssI20
(dp426
g4
F29.0
sg5
F9.743842364532016
sg6
F1.620689655172414
sg7
F47.0
ssI30
(dp427
g4
F29.0
sg5
F6.041871921182266
sg6
F1.5517241379310347
sg7
F45.0
sssI12
(dp428
I0
(dp429
g4
F29.0
sg5
F7.623152709359608
sg6
F1.137931034482759
sg7
F33.0
ssI40
(dp430
g4
F28.0
sg5
F11.50793650793651
sg6
F1.2142857142857146
sg7
F34.0
ssI10
(dp431
g4
F28.0
sg5
F8.321428571428571
sg6
F1.3928571428571428
sg7
F39.0
ssI50
(dp432
g4
F29.0
sg5
F11.899014778325126
sg6
F1.5517241379310345
sg7
F45.0
ssI20
(dp433
g4
F29.0
sg5
F9.820197044334975
sg6
F1.0344827586206897
sg7
F30.0
ssI30
(dp434
g4
F29.0
sg5
F9.251231527093594
sg6
F1.5862068965517238
sg7
F46.0
sssI13
(dp435
I0
(dp436
g4
F29.0
sg5
F6.596059113300493
sg6
F1.1034482758620692
sg7
F32.0
ssI40
(dp437
g4
F28.0
sg5
F7.294973544973545
sg6
F0.9642857142857143
sg7
F27.0
ssI10
(dp438
g4
F29.0
sg5
F4.290640394088671
sg6
F0.8275862068965518
sg7
F24.0
ssI50
(dp439
g4
F28.0
sg5
F7.08994708994709
sg6
F0.8571428571428571
sg7
F24.0
ssI20
(dp440
g4
F28.0
sg5
F6.068783068783069
sg6
F0.9285714285714287
sg7
F26.0
ssI30
(dp441
g4
F28.0
sg5
F3.8465608465608456
sg6
F1.0714285714285714
sg7
F30.0
sssI14
(dp442
I0
(dp443
g4
F29.0
sg5
F3.5197044334975365
sg6
F0.6551724137931034
sg7
F19.0
ssI40
(dp444
g4
F30.0
sg5
F6.791954022988506
sg6
F1.3666666666666667
sg7
F41.0
ssI10
(dp445
g4
F29.0
sg5
F4.972906403940885
sg6
F0.517241379310345
sg7
F15.0
ssI50
(dp446
g4
F30.0
sg5
F5.705747126436782
sg6
F1.1333333333333335
sg7
F34.0
ssI20
(dp447
g4
F29.0
sg5
F5.805418719211822
sg6
F0.6551724137931034
sg7
F19.0
ssI30
(dp448
g4
F30.0
sg5
F5.995402298850573
sg6
F1.266666666666667
sg7
F38.0
sssI15
(dp449
I0
(dp450
g4
F30.0
sg5
F5.610344827586206
sg6
F0.9
sg7
F27.0
ssI40
(dp451
g4
F29.0
sg5
F8.45320197044335
sg6
F1.1034482758620692
sg7
F32.0
ssI10
(dp452
g4
F30.0
sg5
F5.817241379310345
sg6
F0.8999999999999998
sg7
F27.0
ssI50
(dp453
g4
F29.0
sg5
F10.1871921182266
sg6
F1.5172413793103448
sg7
F44.0
ssI20
(dp454
g4
F30.0
sg5
F5.219540229885056
sg6
F0.7666666666666666
sg7
F23.0
ssI30
(dp455
g4
F30.0
sg5
F5.591954022988506
sg6
F1.166666666666667
sg7
F35.0
sssI16
(dp456
I0
(dp457
g4
F31.0
sg5
F1.1161290322580648
sg6
F0.8709677419354839
sg7
F27.0
ssI40
(dp458
g4
F30.0
sg5
F1.0678160919540234
sg6
F0.9666666666666667
sg7
F29.0
ssI10
(dp459
g4
F29.0
sg5
F4.421182266009851
sg6
F0.7241379310344827
sg7
F21.0
ssI50
(dp460
g4
F29.0
sg5
F0.5418719211822658
sg6
F0.44827586206896547
sg7
F13.0
ssI20
(dp461
g4
F30.0
sg5
F7.748275862068967
sg6
F1.1
sg7
F33.0
ssI30
(dp462
g4
F30.0
sg5
F10.478160919540231
sg6
F1.7333333333333338
sg7
F52.0
sssI17
(dp463
I0
(dp464
g4
F29.0
sg5
F0.3497536945812808
sg6
F0.2758620689655173
sg7
F8.0
ssI40
(dp465
g4
F30.0
sg5
F1.581609195402299
sg6
F0.9333333333333335
sg7
F28.0
ssI10
(dp466
g4
F29.0
sg5
F0.20689655172413798
sg6
F0.27586206896551724
sg7
F8.0
ssI50
(dp467
g4
F30.0
sg5
F0.39195402298850585
sg6
F0.23333333333333334
sg7
F7.0
ssI20
(dp468
g4
F29.0
sg5
F0.894088669950739
sg6
F0.5862068965517241
sg7
F17.0
ssI30
(dp469
g4
F30.0
sg5
F1.4540229885057472
sg6
F0.8333333333333335
sg7
F25.0
sssI18
(dp470
I0
(dp471
g4
F31.0
sg5
F0.45161290322580633
sg6
F0.4193548387096774
sg7
F13.0
ssI40
(dp472
g4
F30.0
sg5
F0.23448275862068962
sg6
F0.2
sg7
F6.0
ssI10
(dp473
g4
F30.0
sg5
F0.35517241379310344
sg6
F0.3
sg7
F9.0
ssI50
(dp474
g4
F30.0
sg5
F0.09310344827586206
sg6
F0.1
sg7
F3.0
ssI20
(dp475
g4
F29.0
sg5
F0.03448275862068965
sg6
F0.034482758620689655
sg7
F1.0
ssI30
(dp476
g4
F30.0
sg5
F0.271264367816092
sg6
F0.2666666666666667
sg7
F8.0
sssI19
(dp477
I0
(dp478
g4
F31.0
sg5
F0.3978494623655913
sg6
F0.25806451612903236
sg7
F8.0
ssI40
(dp479
g4
F30.0
sg5
F0.1850574712643678
sg6
F0.23333333333333334
sg7
F7.0
ssI10
(dp480
g4
F29.0
sg5
F0.09605911330049262
sg6
F0.10344827586206896
sg7
F3.0
ssI50
(dp481
g4
F30.0
sg5
F0.18850574712643675
sg6
F0.13333333333333336
sg7
F4.0
ssI20
(dp482
g4
F30.0
sg5
F0.2126436781609195
sg6
F0.16666666666666669
sg7
F5.0
ssI30
(dp483
g4
F29.0
sg5
F0.14778325123152708
sg6
F0.17241379310344826
sg7
F5.0
sssI20
(dp484
I0
(dp485
g4
F29.0
sg5
F0.09605911330049262
sg6
F0.10344827586206899
sg7
F3.0
ssI40
(dp486
g4
F30.0
sg5
F0.0
sg6
F0.0
sg7
F0.0
ssI10
(dp487
g4
F30.0
sg5
F0.03333333333333333
sg6
F0.03333333333333333
sg7
F1.0
ssI50
(dp488
g4
F30.0
sg5
F0.03333333333333332
sg6
F0.03333333333333333
sg7
F1.0
ssI20
(dp489
g4
F30.0
sg5
F0.0
sg6
F0.0
sg7
F0.0
ssI30
(dp490
g4
F30.0
sg5
F0.0
sg6
F0.0
sg7
F0.0
sssI21
(dp491
I0
(dp492
g4
F29.0
sg5
F0.0
sg6
F0.0
sg7
F0.0
ssI40
(dp493
g4
F30.0
sg5
F0.0
sg6
F0.0
sg7
F0.0
ssI10
(dp494
g4
F30.0
sg5
F0.0
sg6
F0.0
sg7
F0.0
ssI50
(dp495
g4
F30.0
sg5
F0.0
sg6
F0.0
sg7
F0.0
ssI20
(dp496
g4
F30.0
sg5
F0.03333333333333333
sg6
F0.03333333333333333
sg7
F1.0
ssI30
(dp497
g4
F30.0
sg5
F0.0
sg6
F0.0
sg7
F0.0
sssI22
(dp498
I0
(dp499
g4
F31.0
sg5
F0.03225806451612903
sg6
F0.03225806451612903
sg7
F1.0
ssI40
(dp500
g4
F29.0
sg5
F0.18965517241379312
sg6
F0.2413793103448276
sg7
F7.0
ssI10
(dp501
g4
F30.0
sg5
F0.0
sg6
F0.0
sg7
F0.0
ssI50
(dp502
g4
F29.0
sg5
F0.0
sg6
F0.0
sg7
F0.0
ssI20
(dp503
g4
F30.0
sg5
F0.0
sg6
F0.0
sg7
F0.0
ssI30
(dp504
g4
F30.0
sg5
F0.0
sg6
F0.0
sg7
F0.0
sssI23
(dp505
I0
(dp506
g4
F29.0
sg5
F0.22167487684729065
sg6
F0.3103448275862069
sg7
F9.0
ssI40
(dp507
g4
F29.0
sg5
F0.0
sg6
F0.0
sg7
F0.0
ssI10
(dp508
g4
F29.0
sg5
F0.0
sg6
F0.0
sg7
F0.0
ssI50
(dp509
g4
F29.0
sg5
F0.0
sg6
F0.0
sg7
F0.0
ssI20
(dp510
g4
F29.0
sg5
F0.0
sg6
F0.0
sg7
F0.0
ssI30
(dp511
g4
F29.0
sg5
F0.034482758620689655
sg6
F0.034482758620689655
sg7
F1.0
ssssI3
(dp512
I0
(dp513
I0
(dp514
g4
F29.0
sg5
F0.0
sg6
F0.0
sg7
F0.0
ssI40
(dp515
g4
F29.0
sg5
F0.0
sg6
F0.0
sg7
F0.0
ssI10
(dp516
g4
F29.0
sg5
F0.0
sg6
F0.0
sg7
F0.0
ssI50
(dp517
g4
F29.0
sg5
F0.0
sg6
F0.0
sg7
F0.0
ssI20
(dp518
g4
F29.0
sg5
F0.0
sg6
F0.0
sg7
F0.0
ssI30
(dp519
g4
F29.0
sg5
F0.034482758620689655
sg6
F0.034482758620689655
sg7
F1.0
sssI1
(dp520
I0
(dp521
g4
F29.0
sg5
F0.034482758620689655
sg6
F0.034482758620689655
sg7
F1.0
ssI40
(dp522
g4
F29.0
sg5
F0.0
sg6
F0.0
sg7
F0.0
ssI10
(dp523
g4
F29.0
sg5
F0.0
sg6
F0.0
sg7
F0.0
ssI50
(dp524
g4
F29.0
sg5
F0.0
sg6
F0.0
sg7
F0.0
ssI20
(dp525
g4
F29.0
sg5
F0.0
sg6
F0.0
sg7
F0.0
ssI30
(dp526
g4
F29.0
sg5
F0.0
sg6
F0.0
sg7
F0.0
sssI2
(dp527
I0
(dp528
g4
F15.0
sg5
F0.0
sg6
F0.0
sg7
F0.0
ssI40
(dp529
g4
F19.0
sg5
F0.0
sg6
F0.0
sg7
F0.0
ssI10
(dp530
g4
F21.0
sg5
F0.21428571428571425
sg6
F0.2857142857142857
sg7
F6.0
ssI50
(dp531
g4
F21.0
sg5
F0.0
sg6
F0.0
sg7
F0.0
ssI20
(dp532
g4
F21.0
sg5
F0.0
sg6
F0.0
sg7
F0.0
ssI30
(dp533
g4
F21.0
sg5
F0.0
sg6
F0.0
sg7
F0.0
sssI3
(dp534
I0
(dp535
g4
F26.0
sg5
F0.20461538461538464
sg6
F0.2692307692307692
sg7
F7.0
ssI40
(dp536
g4
F26.0
sg5
F0.0
sg6
F0.0
sg7
F0.0
ssI10
(dp537
g4
F28.0
sg5
F0.0
sg6
F0.0
sg7
F0.0
ssI50
(dp538
g4
F25.0
sg5
F0.0
sg6
F0.0
sg7
F0.0
ssI20
(dp539
g4
F28.0
sg5
F0.0
sg6
F0.0
sg7
F0.0
ssI30
(dp540
g4
F27.0
sg5
F0.0
sg6
F0.0
sg7
F0.0
sssI4
(dp541
I0
(dp542
g4
F30.0
sg5
F0.03333333333333333
sg6
F0.03333333333333334
sg7
F1.0
ssI40
(dp543
g4
F27.0
sg5
F0.1794871794871795
sg6
F0.2222222222222222
sg7
F6.0
ssI10
(dp544
g4
F28.0
sg5
F0.0
sg6
F0.0
sg7
F0.0
ssI50
(dp545
g4
F28.0
sg5
F0.0
sg6
F0.0
sg7
F0.0
ssI20
(dp546
g4
F27.0
sg5
F0.03703703703703704
sg6
F0.037037037037037035
sg7
F1.0
ssI30
(dp547
g4
F27.0
sg5
F0.0
sg6
F0.0
sg7
F0.0
sssI5
(dp548
I0
(dp549
g4
F28.0
sg5
F0.0
sg6
F0.0
sg7
F0.0
ssI40
(dp550
g4
F29.0
sg5
F0.034482758620689655
sg6
F0.034482758620689655
sg7
F1.0
ssI10
(dp551
g4
F28.0
sg5
F0.0
sg6
F0.0
sg7
F0.0
ssI50
(dp552
g4
F29.0
sg5
F0.5517241379310345
sg6
F0.13793103448275867
sg7
F4.0
ssI20
(dp553
g4
F26.0
sg5
F0.0
sg6
F0.0
sg7
F0.0
ssI30
(dp554
g4
F28.0
sg5
F0.0
sg6
F0.0
sg7
F0.0
sssI6
(dp555
I0
(dp556
g4
F30.0
sg5
F0.16206896551724134
sg6
F0.10000000000000005
sg7
F3.0
ssI40
(dp557
g4
F30.0
sg5
F0.16206896551724134
sg6
F0.10000000000000005
sg7
F3.0
ssI10
(dp558
g4
F29.0
sg5
F0.09605911330049262
sg6
F0.10344827586206899
sg7
F3.0
ssI50
(dp559
g4
F30.0
sg5
F0.7689655172413792
sg6
F0.3
sg7
F9.0
ssI20
(dp560
g4
F29.0
sg5
F0.03448275862068965
sg6
F0.034482758620689655
sg7
F1.0
ssI30
(dp561
g4
F32.0
sg5
F0.7379032258064516
sg6
F0.3124999999999999
sg7
F10.0
sssI7
(dp562
I0
(dp563
g4
F32.0
sg5
F0.748991935483871
sg6
F0.34375000000000006
sg7
F11.0
ssI40
(dp564
g4
F30.0
sg5
F1.1965517241379304
sg6
F0.9
sg7
F27.0
ssI10
(dp565
g4
F30.0
sg5
F0.44712643678160924
sg6
F0.36666666666666664
sg7
F11.0
ssI50
(dp566
g4
F31.0
sg5
F0.5182795698924731
sg6
F0.4193548387096774
sg7
F13.0
ssI20
(dp567
g4
F30.0
sg5
F0.40919540229885065
sg6
F0.2666666666666667
sg7
F8.0
ssI30
(dp568
g4
F30.0
sg5
F3.3344827586206893
sg6
F0.9
sg7
F27.0
sssI8
(dp569
I0
(dp570
g4
F32.0
sg5
F0.5554435483870969
sg6
F0.6562500000000001
sg7
F21.0
ssI40
(dp571
g4
F34.0
sg5
F3.0918003565062384
sg6
F1.3823529411764706
sg7
F47.0
ssI10
(dp572
g4
F32.0
sg5
F0.7006048387096775
sg6
F0.5937500000000002
sg7
F19.0
ssI50
(dp573
g4
F32.0
sg5
F2.7701612903225805
sg6
F1.0625000000000002
sg7
F34.0
ssI20
(dp574
g4
F32.0
sg5
F1.1764112903225807
sg6
F0.71875
sg7
F23.0
ssI30
(dp575
g4
F33.0
sg5
F0.7973484848484846
sg6
F0.8787878787878786
sg7
F29.0
sssI9
(dp576
I0
(dp577
g4
F31.0
sg5
F10.361290322580647
sg6
F1.806451612903226
sg7
F56.0
ssI40
(dp578
g4
F33.0
sg5
F10.842803030303031
sg6
F1.96969696969697
sg7
F65.0
ssI10
(dp579
g4
F33.0
sg5
F3.984848484848485
sg6
F1.121212121212121
sg7
F37.0
ssI50
(dp580
g4
F33.0
sg5
F17.12121212121212
sg6
F1.9393939393939392
sg7
F64.0
ssI20
(dp581
g4
F32.0
sg5
F2.064516129032258
sg6
F1.0000000000000002
sg7
F32.0
ssI30
(dp582
g4
F35.0
sg5
F9.727731092436974
sg6
F1.9142857142857141
sg7
F67.0
sssI10
(dp583
I0
(dp584
g4
F32.0
sg5
F0.6733870967741936
sg6
F0.6875000000000001
sg7
F22.0
ssI40
(dp585
g4
F31.0
sg5
F5.989247311827957
sg6
F1.5483870967741937
sg7
F48.0
ssI10
(dp586
g4
F31.0
sg5
F9.09247311827957
sg6
F1.3225806451612903
sg7
F41.0
ssI50
(dp587
g4
F30.0
sg5
F1.4988505747126433
sg6
F1.1333333333333335
sg7
F34.0
ssI20
(dp588
g4
F32.0
sg5
F1.7328629032258065
sg6
F1.4062499999999996
sg7
F45.0
ssI30
(dp589
g4
F32.0
sg5
F3.661290322580645
sg6
F1.8749999999999998
sg7
F60.0
sssI11
(dp590
I0
(dp591
g4
F29.0
sg5
F0.5443349753694581
sg6
F0.5172413793103448
sg7
F15.0
ssI40
(dp592
g4
F31.0
sg5
F1.918279569892473
sg6
F1.419354838709677
sg7
F44.0
ssI10
(dp593
g4
F31.0
sg5
F0.5462365591397851
sg6
F0.7096774193548389
sg7
F22.0
ssI50
(dp594
g4
F31.0
sg5
F0.7591397849462368
sg6
F0.6774193548387099
sg7
F21.0
ssI20
(dp595
g4
F31.0
sg5
F3.89247311827957
sg6
F1.3225806451612905
sg7
F41.0
ssI30
(dp596
g4
F30.0
sg5
F1.3436781609195403
sg6
F0.9666666666666667
sg7
F29.0
sssI12
(dp597
I0
(dp598
g4
F30.0
sg5
F10.810344827586214
sg6
F1.4999999999999998
sg7
F45.0
ssI40
(dp599
g4
F32.0
sg5
F0.3860887096774194
sg6
F0.46875
sg7
F15.0
ssI10
(dp600
g4
F31.0
sg5
F0.5784946236559139
sg6
F0.6129032258064517
sg7
F19.0
ssI50
(dp601
g4
F32.0
sg5
F6.248991935483873
sg6
F1.4062499999999998
sg7
F45.0
ssI20
(dp602
g4
F30.0
sg5
F0.9609195402298851
sg6
F0.7333333333333334
sg7
F22.0
ssI30
(dp603
g4
F32.0
sg5
F0.660282258064516
sg6
F0.7187499999999999
sg7
F23.0
sssI13
(dp604
I0
(dp605
g4
F34.0
sg5
F5.013368983957219
sg6
F0.6764705882352942
sg7
F23.0
ssI40
(dp606
g4
F32.0
sg5
F0.30645161290322576
sg6
F0.375
sg7
F12.0
ssI10
(dp607
g4
F31.0
sg5
F15.836559139784944
sg6
F1.3548387096774195
sg7
F42.0
ssI50
(dp608
g4
F37.0
sg5
F1.7852852852852854
sg6
F0.7837837837837837
sg7
F29.0
ssI20
(dp609
g4
F31.0
sg5
F16.146236559139783
sg6
F1.2903225806451615
sg7
F40.0
ssI30
(dp610
g4
F31.0
sg5
F6.694623655913978
sg6
F1.1935483870967742
sg7
F37.0
sssI14
(dp611
I0
(dp612
g4
F41.0
sg5
F4.345121951219512
sg6
F0.8292682926829269
sg7
F34.0
ssI40
(dp613
g4
F41.0
sg5
F0.9487804878048779
sg6
F0.41463414634146356
sg7
F17.0
ssI10
(dp614
g4
F41.0
sg5
F1.9304878048780487
sg6
F0.34146341463414626
sg7
F14.0
ssI50
(dp615
g4
F41.0
sg5
F1.498780487804878
sg6
F0.4146341463414634
sg7
F17.0
ssI20
(dp616
g4
F40.0
sg5
F0.4608974358974359
sg6
F0.275
sg7
F11.0
ssI30
(dp617
g4
F41.0
sg5
F0.6439024390243904
sg6
F0.39024390243902446
sg7
F16.0
sssI15
(dp618
I0
(dp619
g4
F40.0
sg5
F1.997435897435898
sg6
F0.5499999999999999
sg7
F22.0
ssI40
(dp620
g4
F40.0
sg5
F2.400000000000001
sg6
F0.6
sg7
F24.0
ssI10
(dp621
g4
F41.0
sg5
F0.962195121951219
sg6
F0.2926829268292682
sg7
F12.0
ssI50
(dp622
g4
F40.0
sg5
F3.025000000000001
sg6
F0.725
sg7
F29.0
ssI20
(dp623
g4
F40.0
sg5
F1.6916666666666664
sg6
F0.2749999999999999
sg7
F11.0
ssI30
(dp624
g4
F42.0
sg5
F2.1927990708478515
sg6
F0.6190476190476191
sg7
F26.0
sssI16
(dp625
I0
(dp626
g4
F39.0
sg5
F15.940620782726045
sg6
F1.487179487179487
sg7
F58.0
ssI40
(dp627
g4
F42.0
sg5
F12.631823461091754
sg6
F1.3809523809523812
sg7
F58.0
ssI10
(dp628
g4
F41.0
sg5
F2.401219512195122
sg6
F0.7317073170731705
sg7
F30.0
ssI50
(dp629
g4
F40.0
sg5
F9.258974358974362
sg6
F0.85
sg7
F34.0
ssI20
(dp630
g4
F41.0
sg5
F1.4878048780487807
sg6
F0.6341463414634144
sg7
F26.0
ssI30
(dp631
g4
F39.0
sg5
F15.313090418353582
sg6
F1.2820512820512815
sg7
F50.0
sssI17
(dp632
I0
(dp633
g4
F39.0
sg5
F10.27260458839406
sg6
F0.8717948717948717
sg7
F34.0
ssI40
(dp634
g4
F44.0
sg5
F12.56818181818182
sg6
F1.1136363636363635
sg7
F49.0
ssI10
(dp635
g4
F39.0
sg5
F7.999999999999998
sg6
F1.0000000000000002
sg7
F39.0
ssI50
(dp636
g4
F44.0
sg5
F13.485729386892169
sg6
F0.8409090909090909
sg7
F37.0
ssI20
(dp637
g4
F40.0
sg5
F13.660897435897429
sg6
F0.9250000000000004
sg7
F37.0
ssI30
(dp638
g4
F40.0
sg5
F12.98397435897436
sg6
F1.125
sg7
F45.0
sssI18
(dp639
I0
(dp640
g4
F40.0
sg5
F10.983974358974363
sg6
F0.8749999999999998
sg7
F35.0
ssI40
(dp641
g4
F39.0
sg5
F13.835357624831303
sg6
F0.8205128205128206
sg7
F32.0
ssI10
(dp642
g4
F40.0
sg5
F16.858974358974354
sg6
F0.75
sg7
F30.0
ssI50
(dp643
g4
F40.0
sg5
F10.284615384615385
sg6
F0.6499999999999999
sg7
F26.0
ssI20
(dp644
g4
F41.0
sg5
F8.525609756097559
sg6
F0.780487804878049
sg7
F32.0
ssI30
(dp645
g4
F41.0
sg5
F11.810975609756097
sg6
F0.8048780487804877
sg7
F33.0
sssI19
(dp646
I0
(dp647
g4
F41.0
sg5
F8.94390243902439
sg6
F0.6097560975609756
sg7
F25.0
ssI40
(dp648
g4
F40.0
sg5
F10.420512820512823
sg6
F0.8
sg7
F32.0
ssI10
(dp649
g4
F40.0
sg5
F10.297435897435898
sg6
F0.6000000000000001
sg7
F24.0
ssI50
(dp650
g4
F40.0
sg5
F12.369230769230768
sg6
F0.7000000000000002
sg7
F28.0
ssI20
(dp651
g4
F40.0
sg5
F10.243589743589746
sg6
F0.7500000000000001
sg7
F30.0
ssI30
(dp652
g4
F40.0
sg5
F12.35833333333333
sg6
F0.725
sg7
F29.0
sssI20
(dp653
I0
(dp654
g4
F39.0
sg5
F10.78677462887989
sg6
F0.7179487179487181
sg7
F28.0
ssI40
(dp655
g4
F40.0
sg5
F11.763461538461542
sg6
F0.6749999999999999
sg7
F27.0
ssI10
(dp656
g4
F41.0
sg5
F9.098780487804879
sg6
F0.5853658536585367
sg7
F24.0
ssI50
(dp657
g4
F40.0
sg5
F10.746153846153849
sg6
F0.6499999999999999
sg7
F26.0
ssI20
(dp658
g4
F40.0
sg5
F7.535897435897435
sg6
F0.5499999999999998
sg7
F22.0
ssI30
(dp659
g4
F40.0
sg5
F7.7333333333333325
sg6
F0.5999999999999999
sg7
F24.0
sssI21
(dp660
I0
(dp661
g4
F40.0
sg5
F7.384615384615386
sg6
F0.5000000000000001
sg7
F20.0
ssI40
(dp662
g4
F40.0
sg5
F7.737820512820513
sg6
F0.5750000000000001
sg7
F23.0
ssI10
(dp663
g4
F40.0
sg5
F8.609615384615386
sg6
F0.5750000000000002
sg7
F23.0
ssI50
(dp664
g4
F40.0
sg5
F7.74102564102564
sg6
F0.5499999999999998
sg7
F22.0
ssI20
(dp665
g4
F41.0
sg5
F7.554878048780488
sg6
F0.5365853658536583
sg7
F22.0
ssI30
(dp666
g4
F40.0
sg5
F11.515384615384615
sg6
F0.6499999999999999
sg7
F26.0
sssI22
(dp667
I0
(dp668
g4
F39.0
sg5
F8.465587044534416
sg6
F0.5384615384615384
sg7
F21.0
ssI40
(dp669
g4
F41.0
sg5
F10.001219512195123
sg6
F0.7317073170731707
sg7
F30.0
ssI10
(dp670
g4
F39.0
sg5
F10.596491228070175
sg6
F0.6666666666666665
sg7
F26.0
ssI50
(dp671
g4
F40.0
sg5
F7.384615384615386
sg6
F0.5000000000000001
sg7
F20.0
ssI20
(dp672
g4
F41.0
sg5
F8.056097560975612
sg6
F0.5121951219512196
sg7
F21.0
ssI30
(dp673
g4
F41.0
sg5
F8.20487804878049
sg6
F0.5365853658536586
sg7
F22.0
sssI23
(dp674
I0
(dp675
g4
F41.0
sg5
F7.521951219512195
sg6
F0.6829268292682926
sg7
F28.0
ssI40
(dp676
g4
F39.0
sg5
F6.887989203778677
sg6
F0.5128205128205129
sg7
F20.0
ssI10
(dp677
g4
F40.0
sg5
F5.2282051282051265
sg6
F0.44999999999999984
sg7
F18.0
ssI50
(dp678
g4
F40.0
sg5
F7.537820512820513
sg6
F0.5250000000000002
sg7
F21.0
ssI20
(dp679
g4
F41.0
sg5
F6.5560975609756085
sg6
F0.4878048780487806
sg7
F20.0
ssI30
(dp680
g4
F41.0
sg5
F6.00609756097561
sg6
F0.4878048780487806
sg7
F20.0
ssssI4
(dp681
I0
(dp682
I0
(dp683
g4
F40.0
sg5
F7.537820512820513
sg6
F0.525
sg7
F21.0
ssI40
(dp684
g4
F41.0
sg5
F11.043902439024391
sg6
F0.6097560975609755
sg7
F25.0
ssI10
(dp685
g4
F41.0
sg5
F7.206097560975612
sg6
F0.5121951219512196
sg7
F21.0
ssI50
(dp686
g4
F41.0
sg5
F9.902439024390246
sg6
F0.5609756097560976
sg7
F23.0
ssI20
(dp687
g4
F41.0
sg5
F6.5560975609756085
sg6
F0.4878048780487806
sg7
F20.0
ssI30
(dp688
g4
F40.0
sg5
F10.148076923076925
sg6
F0.5750000000000002
sg7
F23.0
sssI1
(dp689
I0
(dp690
g4
F41.0
sg5
F7.902439024390247
sg6
F0.4390243902439024
sg7
F18.0
ssI40
(dp691
g4
F41.0
sg5
F7.2060975609756115
sg6
F0.4878048780487806
sg7
F20.0
ssI10
(dp692
g4
F40.0
sg5
F8.407692307692308
sg6
F0.5499999999999998
sg7
F22.0
ssI50
(dp693
g4
F40.0
sg5
F6.922435897435898
sg6
F0.5250000000000002
sg7
F21.0
ssI20
(dp694
g4
F40.0
sg5
F8.255769230769232
sg6
F0.5250000000000001
sg7
F21.0
ssI30
(dp695
g4
F41.0
sg5
F8.402439024390246
sg6
F0.5609756097560977
sg7
F23.0
sssI2
(dp696
I0
(dp697
g4
F28.0
sg5
F9.544973544973542
sg6
F0.7142857142857142
sg7
F20.0
ssI40
(dp698
g4
F32.0
sg5
F11.62802419354839
sg6
F0.71875
sg7
F23.0
ssI10
(dp699
g4
F33.0
sg5
F7.892045454545454
sg6
F0.7272727272727272
sg7
F24.0
ssI50
(dp700
g4
F33.0
sg5
F12.454545454545455
sg6
F0.7272727272727274
sg7
F24.0
ssI20
(dp701
g4
F33.0
sg5
F8.121212121212118
sg6
F0.6060606060606061
sg7
F20.0
ssI30
(dp702
g4
F33.0
sg5
F10.166666666666668
sg6
F0.6666666666666669
sg7
F22.0
sssI3
(dp703
I0
(dp704
g4
F39.0
sg5
F0.3657219973009448
sg6
F0.282051282051282
sg7
F11.0
ssI40
(dp705
g4
F41.0
sg5
F7.554878048780488
sg6
F0.5365853658536583
sg7
F22.0
ssI10
(dp706
g4
F41.0
sg5
F9.102439024390245
sg6
F0.5609756097560977
sg7
F23.0
ssI50
(dp707
g4
F38.0
sg5
F9.056187766714086
sg6
F0.605263157894737
sg7
F23.0
ssI20
(dp708
g4
F40.0
sg5
F6.717948717948716
sg6
F0.5000000000000001
sg7
F20.0
ssI30
(dp709
g4
F41.0
sg5
F7.204878048780489
sg6
F0.5365853658536583
sg7
F22.0
sssI4
(dp710
I0
(dp711
g4
F41.0
sg5
F9.902439024390246
sg6
F0.5609756097560976
sg7
F23.0
ssI40
(dp712
g4
F39.0
sg5
F8.76113360323887
sg6
F0.7692307692307694
sg7
F30.0
ssI10
(dp713
g4
F39.0
sg5
F9.769230769230768
sg6
F0.6153846153846154
sg7
F24.0
ssI50
(dp714
g4
F39.0
sg5
F7.728744939271256
sg6
F0.5384615384615387
sg7
F21.0
ssI20
(dp715
g4
F39.0
sg5
F9.41025641025641
sg6
F0.5641025641025641
sg7
F22.0
ssI30
(dp716
g4
F40.0
sg5
F8.404487179487182
sg6
F0.5750000000000002
sg7
F23.0
sssI5
(dp717
I0
(dp718
g4
F40.0
sg5
F8.407692307692308
sg6
F0.55
sg7
F22.0
ssI40
(dp719
g4
F39.0
sg5
F5.361673414304993
sg6
F0.4871794871794873
sg7
F19.0
ssI10
(dp720
g4
F40.0
sg5
F8.855769230769234
sg6
F0.625
sg7
F25.0
ssI50
(dp721
g4
F40.0
sg5
F6.563461538461537
sg6
F0.4750000000000001
sg7
F19.0
ssI20
(dp722
g4
F40.0
sg5
F6.614743589743591
sg6
F0.525
sg7
F21.0
ssI30
(dp723
g4
F39.0
sg5
F4.252361673414304
sg6
F0.43589743589743585
sg7
F17.0
sssI6
(dp724
I0
(dp725
g4
F39.0
sg5
F8.786774628879892
sg6
F0.7179487179487182
sg7
F28.0
ssI40
(dp726
g4
F38.0
sg5
F8.526315789473685
sg6
F0.5263157894736843
sg7
F20.0
ssI10
(dp727
g4
F41.0
sg5
F7.904878048780489
sg6
F0.46341463414634154
sg7
F19.0
ssI50
(dp728
g4
F38.0
sg5
F12.802987197724045
sg6
F0.8157894736842104
sg7
F31.0
ssI20
(dp729
g4
F38.0
sg5
F6.743243243243242
sg6
F0.5000000000000002
sg7
F19.0
ssI30
(dp730
g4
F40.0
sg5
F8.100000000000003
sg6
F0.44999999999999996
sg7
F18.0
sssI7
(dp731
I0
(dp732
g4
F38.0
sg5
F9.101706970128024
sg6
F0.9210526315789476
sg7
F35.0
ssI40
(dp733
g4
F40.0
sg5
F13.207692307692305
sg6
F1.1500000000000001
sg7
F46.0
ssI10
(dp734
g4
F41.0
sg5
F8.275609756097563
sg6
F0.7804878048780484
sg7
F32.0
ssI50
(dp735
g4
F38.0
sg5
F20.524182076813656
sg6
F1.4473684210526312
sg7
F55.0
ssI20
(dp736
g4
F41.0
sg5
F7.998780487804879
sg6
F0.5853658536585367
sg7
F24.0
ssI30
(dp737
g4
F41.0
sg5
F12.700000000000001
sg6
F1.0000000000000002
sg7
F41.0
sssI8
(dp738
I0
(dp739
g4
F41.0
sg5
F11.295121951219508
sg6
F1.1707317073170733
sg7
F48.0
ssI40
(dp740
g4
F39.0
sg5
F14.669365721997298
sg6
F1.4102564102564106
sg7
F55.0
ssI10
(dp741
g4
F40.0
sg5
F7.361538461538459
sg6
F0.8500000000000001
sg7
F34.0
ssI50
(dp742
g4
F40.0
sg5
F10.676923076923078
sg6
F1.1999999999999997
sg7
F48.0
ssI20
(dp743
g4
F39.0
sg5
F14.628879892037787
sg6
F1.282051282051282
sg7
F50.0
ssI30
(dp744
g4
F39.0
sg5
F12.932523616734143
sg6
F1.4102564102564101
sg7
F55.0
sssI9
(dp745
I0
(dp746
g4
F40.0
sg5
F18.968589743589753
sg6
F1.425
sg7
F57.0
ssI40
(dp747
g4
F40.0
sg5
F13.89166666666666
sg6
F1.5749999999999997
sg7
F63.0
ssI10
(dp748
g4
F40.0
sg5
F10.666025641025643
sg6
F1.2749999999999997
sg7
F51.0
ssI50
(dp749
g4
F40.0
sg5
F5.840384615384613
sg6
F0.825
sg7
F33.0
ssI20
(dp750
g4
F41.0
sg5
F8.17439024390244
sg6
F1.024390243902439
sg7
F42.0
ssI30
(dp751
g4
F42.0
sg5
F13.475609756097558
sg6
F1.5000000000000002
sg7
F63.0
sssI10
(dp752
I0
(dp753
g4
F41.0
sg5
F23.337804878048775
sg6
F1.3658536585365852
sg7
F56.0
ssI40
(dp754
g4
F42.0
sg5
F1.9703832752613246
sg6
F1.0714285714285718
sg7
F45.0
ssI10
(dp755
g4
F43.0
sg5
F7.312292358803986
sg6
F1.209302325581395
sg7
F52.0
ssI50
(dp756
g4
F43.0
sg5
F8.41971207087486
sg6
F1.0930232558139537
sg7
F47.0
ssI20
(dp757
g4
F42.0
sg5
F11.607433217189318
sg6
F0.952380952380952
sg7
F40.0
ssI30
(dp758
g4
F43.0
sg5
F1.916943521594684
sg6
F1.1860465116279066
sg7
F51.0
sssI11
(dp759
I0
(dp760
g4
F43.0
sg5
F4.419712070874861
sg6
F0.9069767441860468
sg7
F39.0
ssI40
(dp761
g4
F43.0
sg5
F20.653377630121817
sg6
F1.6744186046511627
sg7
F72.0
ssI10
(dp762
g4
F43.0
sg5
F17.582502768549286
sg6
F1.4186046511627906
sg7
F61.0
ssI50
(dp763
g4
F43.0
sg5
F19.10631229235881
sg6
F1.5813953488372094
sg7
F68.0
ssI20
(dp764
g4
F42.0
sg5
F25.698025551684072
sg6
F1.238095238095238
sg7
F52.0
ssI30
(dp765
g4
F43.0
sg5
F21.147286821705425
sg6
F1.744186046511628
sg7
F75.0
sssI12
(dp766
I0
(dp767
g4
F42.0
sg5
F1.0313588850174213
sg6
F0.5714285714285715
sg7
F24.0
ssI40
(dp768
g4
F43.0
sg5
F2.964562569213732
sg6
F0.8139534883720928
sg7
F35.0
ssI10
(dp769
g4
F41.0
sg5
F0.45243902439024397
sg6
F0.4390243902439023
sg7
F18.0
ssI50
(dp770
g4
F42.0
sg5
F2.7293844367015105
sg6
F1.0476190476190477
sg7
F44.0
ssI20
(dp771
g4
F43.0
sg5
F2.6943521594684383
sg6
F0.8604651162790696
sg7
F37.0
ssI30
(dp772
g4
F43.0
sg5
F2.801771871539313
sg6
F0.7674418604651161
sg7
F33.0
sssI13
(dp773
I0
(dp774
g4
F44.0
sg5
F2.2536997885835097
sg6
F0.5454545454545454
sg7
F24.0
ssI40
(dp775
g4
F41.0
sg5
F2.04390243902439
sg6
F0.3902439024390243
sg7
F16.0
ssI10
(dp776
g4
F41.0
sg5
F1.9487804878048778
sg6
F0.5853658536585366
sg7
F24.0
ssI50
(dp777
g4
F42.0
sg5
F2.436701509872241
sg6
F0.380952380952381
sg7
F16.0
ssI20
(dp778
g4
F41.0
sg5
F2.1524390243902447
sg6
F0.43902439024390233
sg7
F18.0
ssI30
(dp779
g4
F41.0
sg5
F1.6878048780487809
sg6
F0.36585365853658536
sg7
F15.0
sssI14
(dp780
I0
(dp781
g4
F40.0
sg5
F2.194871794871796
sg6
F0.4
sg7
F16.0
ssI40
(dp782
g4
F42.0
sg5
F3.916376306620207
sg6
F0.7142857142857143
sg7
F30.0
ssI10
(dp783
g4
F42.0
sg5
F1.9419279907084792
sg6
F0.23809523809523803
sg7
F10.0
ssI50
(dp784
g4
F41.0
sg5
F3.175609756097562
sg6
F0.780487804878049
sg7
F32.0
ssI20
(dp785
g4
F41.0
sg5
F1.7219512195121953
sg6
F0.31707317073170727
sg7
F13.0
ssI30
(dp786
g4
F43.0
sg5
F3.5858250276854937
sg6
F0.5581395348837208
sg7
F24.0
sssI15
(dp787
I0
(dp788
g4
F42.0
sg5
F3.40534262485482
sg6
F0.7619047619047619
sg7
F32.0
ssI40
(dp789
g4
F42.0
sg5
F3.421602787456446
sg6
F0.5714285714285713
sg7
F24.0
ssI10
(dp790
g4
F41.0
sg5
F3.598780487804876
sg6
F0.41463414634146334
sg7
F17.0
ssI50
(dp791
g4
F41.0
sg5
F1.65609756097561
sg6
F0.4878048780487804
sg7
F20.0
ssI20
(dp792
g4
F42.0
sg5
F3.0644599303135887
sg6
F0.3571428571428572
sg7
F15.0
ssI30
(dp793
g4
F42.0
sg5
F2.5342624854819977
sg6
F0.38095238095238093
sg7
F16.0
sssI16
(dp794
I0
(dp795
g4
F37.0
sg5
F0.7897897897897898
sg6
F0.3513513513513513
sg7
F13.0
ssI40
(dp796
g4
F42.0
sg5
F1.5725900116144014
sg6
F0.5238095238095237
sg7
F22.0
ssI10
(dp797
g4
F42.0
sg5
F0.5993031358885018
sg6
F0.28571428571428564
sg7
F12.0
ssI50
(dp798
g4
F42.0
sg5
F0.4668989547038328
sg6
F0.14285714285714288
sg7
F6.0
ssI20
(dp799
g4
F42.0
sg5
F0.8850174216027874
sg6
F0.4285714285714285
sg7
F18.0
ssI30
(dp800
g4
F42.0
sg5
F1.421602787456446
sg6
F0.42857142857142844
sg7
F18.0
sssI17
(dp801
I0
(dp802
g4
F32.0
sg5
F0.2862903225806453
sg6
F0.31249999999999994
sg7
F10.0
ssI40
(dp803
g4
F32.0
sg5
F25.28931451612902
sg6
F1.46875
sg7
F47.0
ssI10
(dp804
g4
F32.0
sg5
F1.9314516129032255
sg6
F0.43750000000000017
sg7
F14.0
ssI50
(dp805
g4
F33.0
sg5
F2.068181818181819
sg6
F0.45454545454545453
sg7
F15.0
ssI20
(dp806
g4
F31.0
sg5
F1.303225806451613
sg6
F0.3548387096774193
sg7
F11.0
ssI30
(dp807
g4
F32.0
sg5
F34.03931451612904
sg6
F1.3437499999999996
sg7
F43.0
sssI18
(dp808
I0
(dp809
g4
F33.0
sg5
F1.5018939393939392
sg6
F0.24242424242424254
sg7
F8.0
ssI40
(dp810
g4
F31.0
sg5
F6.378494623655914
sg6
F0.6129032258064516
sg7
F19.0
ssI10
(dp811
g4
F34.0
sg5
F2.9625668449197846
sg6
F0.3529411764705883
sg7
F12.0
ssI50
(dp812
g4
F31.0
sg5
F4.425806451612903
sg6
F0.6774193548387096
sg7
F21.0
ssI20
(dp813
g4
F34.0
sg5
F0.0
sg6
F0.0
sg7
F0.0
ssI30
(dp814
g4
F31.0
sg5
F0.2731182795698925
sg6
F0.1612903225806452
sg7
F5.0
sssI19
(dp815
I0
(dp816
g4
F31.0
sg5
F8.303225806451614
sg6
F0.6451612903225807
sg7
F20.0
ssI40
(dp817
g4
F31.0
sg5
F1.6580645161290317
sg6
F0.4838709677419355
sg7
F15.0
ssI10
(dp818
g4
F31.0
sg5
F8.397849462365592
sg6
F0.7419354838709677
sg7
F23.0
ssI50
(dp819
g4
F31.0
sg5
F4.645161290322581
sg6
F0.38709677419354843
sg7
F12.0
ssI20
(dp820
g4
F31.0
sg5
F6.389247311827957
sg6
F0.5483870967741936
sg7
F17.0
ssI30
(dp821
g4
F31.0
sg5
F11.961290322580645
sg6
F0.806451612903226
sg7
F25.0
sssI20
(dp822
I0
(dp823
g4
F31.0
sg5
F6.322580645161291
sg6
F0.45161290322580644
sg7
F14.0
ssI40
(dp824
g4
F31.0
sg5
F0.032258064516129024
sg6
F0.032258064516129045
sg7
F1.0
ssI10
(dp825
g4
F31.0
sg5
F0.12903225806451613
sg6
F0.06451612903225809
sg7
F2.0
ssI50
(dp826
g4
F31.0
sg5
F0.0
sg6
F0.0
sg7
F0.0
ssI20
(dp827
g4
F31.0
sg5
F0.12903225806451613
sg6
F0.06451612903225809
sg7
F2.0
ssI30
(dp828
g4
F31.0
sg5
F0.03225806451612903
sg6
F0.03225806451612904
sg7
F1.0
sssI21
(dp829
I0
(dp830
g4
F31.0
sg5
F0.0
sg6
F0.0
sg7
F0.0
ssI40
(dp831
g4
F31.0
sg5
F0.03225806451612903
sg6
F0.03225806451612903
sg7
F1.0
ssI10
(dp832
g4
F31.0
sg5
F0.0
sg6
F0.0
sg7
F0.0
ssI50
(dp833
g4
F31.0
sg5
F0.0
sg6
F0.0
sg7
F0.0
ssI20
(dp834
g4
F31.0
sg5
F0.03225806451612903
sg6
F0.03225806451612904
sg7
F1.0
ssI30
(dp835
g4
F31.0
sg5
F0.0
sg6
F0.0
sg7
F0.0
sssI22
(dp836
I0
(dp837
g4
F31.0
sg5
F0.03225806451612903
sg6
F0.03225806451612904
sg7
F1.0
ssI40
(dp838
g4
F31.0
sg5
F0.1806451612903226
sg6
F0.22580645161290322
sg7
F7.0
ssI10
(dp839
g4
F31.0
sg5
F0.0
sg6
F0.0
sg7
F0.0
ssI50
(dp840
g4
F31.0
sg5
F0.0
sg6
F0.0
sg7
F0.0
ssI20
(dp841
g4
F31.0
sg5
F0.0
sg6
F0.0
sg7
F0.0
ssI30
(dp842
g4
F31.0
sg5
F0.0
sg6
F0.0
sg7
F0.0
sssI23
(dp843
I0
(dp844
g4
F31.0
sg5
F0.1806451612903226
sg6
F0.22580645161290322
sg7
F7.0
ssI40
(dp845
g4
F31.0
sg5
F0.0
sg6
F0.0
sg7
F0.0
ssI10
(dp846
g4
F31.0
sg5
F0.0
sg6
F0.0
sg7
F0.0
ssI50
(dp847
g4
F31.0
sg5
F0.0
sg6
F0.0
sg7
F0.0
ssI20
(dp848
g4
F31.0
sg5
F0.0
sg6
F0.0
sg7
F0.0
ssI30
(dp849
g4
F31.0
sg5
F0.0
sg6
F0.0
sg7
F0.0
ssssI5
(dp850
I0
(dp851
I0
(dp852
g4
F30.0
sg5
F0.0
sg6
F0.0
sg7
F0.0
ssI40
(dp853
g4
F31.0
sg5
F0.0
sg6
F0.0
sg7
F0.0
ssI10
(dp854
g4
F31.0
sg5
F0.03225806451612903
sg6
F0.03225806451612903
sg7
F1.0
ssI50
(dp855
g4
F31.0
sg5
F0.0
sg6
F0.0
sg7
F0.0
ssI20
(dp856
g4
F31.0
sg5
F0.0
sg6
F0.0
sg7
F0.0
ssI30
(dp857
g4
F31.0
sg5
F0.0
sg6
F0.0
sg7
F0.0
sssI1
(dp858
I0
(dp859
g4
F32.0
sg5
F0.0
sg6
F0.0
sg7
F0.0
ssI40
(dp860
g4
F31.0
sg5
F0.0
sg6
F0.0
sg7
F0.0
ssI10
(dp861
g4
F31.0
sg5
F0.0
sg6
F0.0
sg7
F0.0
ssI50
(dp862
g4
F31.0
sg5
F0.0
sg6
F0.0
sg7
F0.0
ssI20
(dp863
g4
F31.0
sg5
F0.0
sg6
F0.0
sg7
F0.0
ssI30
(dp864
g4
F30.0
sg5
F0.0
sg6
F0.0
sg7
F0.0
sssI2
(dp865
I0
(dp866
g4
F17.0
sg5
F0.0
sg6
F0.0
sg7
F0.0
ssI40
(dp867
g4
F23.0
sg5
F0.0
sg6
F0.0
sg7
F0.0
ssI10
(dp868
g4
F23.0
sg5
F0.17786561264822134
sg6
F0.21739130434782608
sg7
F5.0
ssI50
(dp869
g4
F23.0
sg5
F0.0
sg6
F0.0
sg7
F0.0
ssI20
(dp870
g4
F23.0
sg5
F0.0
sg6
F0.0
sg7
F0.0
ssI30
(dp871
g4
F23.0
sg5
F0.0
sg6
F0.0
sg7
F0.0
sssI3
(dp872
I0
(dp873
g4
F32.0
sg5
F0.17641129032258068
sg6
F0.21875
sg7
F7.0
ssI40
(dp874
g4
F30.0
sg5
F0.0
sg6
F0.0
sg7
F0.0
ssI10
(dp875
g4
F31.0
sg5
F0.0
sg6
F0.0
sg7
F0.0
ssI50
(dp876
g4
F30.0
sg5
F0.0
sg6
F0.0
sg7
F0.0
ssI20
(dp877
g4
F31.0
sg5
F0.0
sg6
F0.0
sg7
F0.0
ssI30
(dp878
g4
F30.0
sg5
F0.03333333333333333
sg6
F0.03333333333333333
sg7
F1.0
sssI4
(dp879
I0
(dp880
g4
F31.0
sg5
F0.03225806451612903
sg6
F0.03225806451612904
sg7
F1.0
ssI40
(dp881
g4
F31.0
sg5
F0.16129032258064516
sg6
F0.19354838709677422
sg7
F6.0
ssI10
(dp882
g4
F31.0
sg5
F0.0
sg6
F0.0
sg7
F0.0
ssI50
(dp883
g4
F31.0
sg5
F0.0
sg6
F0.0
sg7
F0.0
ssI20
(dp884
g4
F31.0
sg5
F0.0
sg6
F0.0
sg7
F0.0
ssI30
(dp885
g4
F31.0
sg5
F0.0
sg6
F0.0
sg7
F0.0
sssI5
(dp886
I0
(dp887
g4
F31.0
sg5
F0.12903225806451613
sg6
F0.06451612903225809
sg7
F2.0
ssI40
(dp888
g4
F31.0
sg5
F0.0
sg6
F0.0
sg7
F0.0
ssI10
(dp889
g4
F31.0
sg5
F0.0
sg6
F0.0
sg7
F0.0
ssI50
(dp890
g4
F31.0
sg5
F0.0
sg6
F0.0
sg7
F0.0
ssI20
(dp891
g4
F31.0
sg5
F0.0
sg6
F0.0
sg7
F0.0
ssI30
(dp892
g4
F31.0
sg5
F0.0
sg6
F0.0
sg7
F0.0
sssI6
(dp893
I0
(dp894
g4
F31.0
sg5
F0.0
sg6
F0.0
sg7
F0.0
ssI40
(dp895
g4
F31.0
sg5
F0.0
sg6
F0.0
sg7
F0.0
ssI10
(dp896
g4
F31.0
sg5
F0.0
sg6
F0.0
sg7
F0.0
ssI50
(dp897
g4
F31.0
sg5
F0.0
sg6
F0.0
sg7
F0.0
ssI20
(dp898
g4
F31.0
sg5
F0.0
sg6
F0.0
sg7
F0.0
ssI30
(dp899
g4
F31.0
sg5
F0.0
sg6
F0.0
sg7
F0.0
sssI7
(dp900
I0
(dp901
g4
F30.0
sg5
F2.148275862068965
sg6
F0.3
sg7
F9.0
ssI40
(dp902
g4
F31.0
sg5
F8.197849462365589
sg6
F0.741935483870968
sg7
F23.0
ssI10
(dp903
g4
F31.0
sg5
F0.0
sg6
F0.0
sg7
F0.0
ssI50
(dp904
g4
F31.0
sg5
F21.806451612903224
sg6
F0.8387096774193552
sg7
F26.0
ssI20
(dp905
g4
F31.0
sg5
F0.0
sg6
F0.0
sg7
F0.0
ssI30
(dp906
g4
F31.0
sg5
F0.12903225806451613
sg6
F0.06451612903225809
sg7
F2.0
sssI8
(dp907
I0
(dp908
g4
F31.0
sg5
F0.0
sg6
F0.0
sg7
F0.0
ssI40
(dp909
g4
F31.0
sg5
F2.7849462365591404
sg6
F0.41935483870967744
sg7
F13.0
ssI10
(dp910
g4
F31.0
sg5
F0.5161290322580645
sg6
F0.12903225806451618
sg7
F4.0
ssI50
(dp911
g4
F31.0
sg5
F2.0795698924731183
sg6
F0.2903225806451613
sg7
F9.0
ssI20
(dp912
g4
F31.0
sg5
F0.6279569892473117
sg6
F0.19354838709677427
sg7
F6.0
ssI30
(dp913
g4
F31.0
sg5
F3.911827956989247
sg6
F0.3870967741935484
sg7
F12.0
sssI9
(dp914
I0
(dp915
g4
F31.0
sg5
F1.6258064516129038
sg6
F0.32258064516129037
sg7
F10.0
ssI40
(dp916
g4
F31.0
sg5
F1.1612903225806457
sg6
F0.19354838709677422
sg7
F6.0
ssI10
(dp917
g4
F30.0
sg5
F0.18850574712643672
sg6
F0.13333333333333336
sg7
F4.0
ssI50
(dp918
g4
F31.0
sg5
F0.12903225806451613
sg6
F0.06451612903225809
sg7
F2.0
ssI20
(dp919
g4
F31.0
sg5
F0.15698924731182792
sg6
F0.09677419354838714
sg7
F3.0
ssI30
(dp920
g4
F31.0
sg5
F0.5311827956989247
sg6
F0.2580645161290323
sg7
F8.0
sssI10
(dp921
I0
(dp922
g4
F30.0
sg5
F0.0
sg6
F0.0
sg7
F0.0
ssI40
(dp923
g4
F31.0
sg5
F3.9118279569892485
sg6
F0.6129032258064517
sg7
F19.0
ssI10
(dp924
g4
F31.0
sg5
F4.645161290322583
sg6
F0.38709677419354843
sg7
F12.0
ssI50
(dp925
g4
F31.0
sg5
F0.03225806451612903
sg6
F0.03225806451612904
sg7
F1.0
ssI20
(dp926
g4
F31.0
sg5
F8.258064516129032
sg6
F0.5161290322580647
sg7
F16.0
ssI30
(dp927
g4
F31.0
sg5
F1.625806451612903
sg6
F0.32258064516129037
sg7
F10.0
sssI11
(dp928
I0
(dp929
g4
F30.0
sg5
F0.06436781609195402
sg6
F0.06666666666666667
sg7
F2.0
ssI40
(dp930
g4
F30.0
sg5
F0.03333333333333333
sg6
F0.03333333333333333
sg7
F1.0
ssI10
(dp931
g4
F30.0
sg5
F0.0
sg6
F0.0
sg7
F0.0
ssI50
(dp932
g4
F30.0
sg5
F0.13333333333333333
sg6
F0.06666666666666667
sg7
F2.0
ssI20
(dp933
g4
F30.0
sg5
F0.03333333333333333
sg6
F0.03333333333333333
sg7
F1.0
ssI30
(dp934
g4
F30.0
sg5
F0.0
sg6
F0.0
sg7
F0.0
sssI12
(dp935
I0
(dp936
g4
F31.0
sg5
F0.0
sg6
F0.0
sg7
F0.0
ssI40
(dp937
g4
F30.0
sg5
F0.0
sg6
F0.0
sg7
F0.0
ssI10
(dp938
g4
F30.0
sg5
F1.7712643678160915
sg6
F0.43333333333333335
sg7
F13.0
ssI50
(dp939
g4
F30.0
sg5
F2.396551724137931
sg6
F0.5
sg7
F15.0
ssI20
(dp940
g4
F29.0
sg5
F0.5763546798029556
sg6
F0.17241379310344834
sg7
F5.0
ssI30
(dp941
g4
F30.0
sg5
F1.2195402298850575
sg6
F0.23333333333333334
sg7
F7.0
sssI13
(dp942
I0
(dp943
g4
F28.0
sg5
F0.03571428571428571
sg6
F0.03571428571428572
sg7
F1.0
ssI40
(dp944
g4
F30.0
sg5
F0.16551724137931034
sg6
F0.2
sg7
F6.0
ssI10
(dp945
g4
F30.0
sg5
F0.13333333333333333
sg6
F0.0666666666666667
sg7
F2.0
ssI50
(dp946
g4
F30.0
sg5
F0.0
sg6
F0.0
sg7
F0.0
ssI20
(dp947
g4
F30.0
sg5
F0.03333333333333333
sg6
F0.03333333333333333
sg7
F1.0
ssI30
(dp948
g4
F30.0
sg5
F0.03333333333333333
sg6
F0.03333333333333334
sg7
F1.0
sssI14
(dp949
I0
(dp950
g4
F30.0
sg5
F0.0
sg6
F0.0
sg7
F0.0
ssI40
(dp951
g4
F30.0
sg5
F0.03333333333333333
sg6
F0.03333333333333333
sg7
F1.0
ssI10
(dp952
g4
F30.0
sg5
F0.03333333333333333
sg6
F0.03333333333333333
sg7
F1.0
ssI50
(dp953
g4
F30.0
sg5
F0.0
sg6
F0.0
sg7
F0.0
ssI20
(dp954
g4
F30.0
sg5
F0.13333333333333333
sg6
F0.06666666666666668
sg7
F2.0
ssI30
(dp955
g4
F30.0
sg5
F0.0
sg6
F0.0
sg7
F0.0
sssI15
(dp956
I0
(dp957
g4
F29.0
sg5
F0.0
sg6
F0.0
sg7
F0.0
ssI40
(dp958
g4
F30.0
sg5
F0.0
sg6
F0.0
sg7
F0.0
ssI10
(dp959
g4
F30.0
sg5
F0.0
sg6
F0.0
sg7
F0.0
ssI50
(dp960
g4
F30.0
sg5
F0.0
sg6
F0.0
sg7
F0.0
ssI20
(dp961
g4
F30.0
sg5
F0.0
sg6
F0.0
sg7
F0.0
ssI30
(dp962
g4
F30.0
sg5
F0.03333333333333333
sg6
F0.03333333333333334
sg7
F1.0
sssI16
(dp963
I0
(dp964
g4
F30.0
sg5
F0.0
sg6
F0.0
sg7
F0.0
ssI40
(dp965
g4
F30.0
sg5
F0.1850574712643678
sg6
F0.23333333333333334
sg7
F7.0
ssI10
(dp966
g4
F30.0
sg5
F0.0
sg6
F0.0
sg7
F0.0
ssI50
(dp967
g4
F30.0
sg5
F0.0
sg6
F0.0
sg7
F0.0
ssI20
(dp968
g4
F30.0
sg5
F0.0
sg6
F0.0
sg7
F0.0
ssI30
(dp969
g4
F30.0
sg5
F0.0
sg6
F0.0
sg7
F0.0
sssI17
(dp970
I0
(dp971
g4
F31.0
sg5
F0.0
sg6
F0.0
sg7
F0.0
ssI40
(dp972
g4
F30.0
sg5
F0.0
sg6
F0.0
sg7
F0.0
ssI10
(dp973
g4
F29.0
sg5
F0.0
sg6
F0.0
sg7
F0.0
ssI50
(dp974
g4
F30.0
sg5
F0.0
sg6
F0.0
sg7
F0.0
ssI20
(dp975
g4
F30.0
sg5
F0.0
sg6
F0.0
sg7
F0.0
ssI30
(dp976
g4
F30.0
sg5
F0.0
sg6
F0.0
sg7
F0.0
sssI18
(dp977
I0
(dp978
g4
F35.0
sg5
F0.0
sg6
F0.0
sg7
F0.0
ssI40
(dp979
g4
F38.0
sg5
F0.0
sg6
F0.0
sg7
F0.0
ssI10
(dp980
g4
F30.0
sg5
F0.0
sg6
F0.0
sg7
F0.0
ssI50
(dp981
g4
F39.0
sg5
F0.0
sg6
F0.0
sg7
F0.0
ssI20
(dp982
g4
F30.0
sg5
F0.03333333333333333
sg6
F0.03333333333333334
sg7
F1.0
ssI30
(dp983
g4
F30.0
sg5
F0.0
sg6
F0.0
sg7
F0.0
sssI19
(dp984
I0
(dp985
g4
F40.0
sg5
F0.0
sg6
F0.0
sg7
F0.0
ssI40
(dp986
g4
F39.0
sg5
F0.15114709851551958
sg6
F0.1794871794871795
sg7
F7.0
ssI10
(dp987
g4
F40.0
sg5
F0.0
sg6
F0.0
sg7
F0.0
ssI50
(dp988
g4
F40.0
sg5
F0.0
sg6
F0.0
sg7
F0.0
ssI20
(dp989
g4
F40.0
sg5
F0.0
sg6
F0.0
sg7
F0.0
ssI30
(dp990
g4
F40.0
sg5
F0.0
sg6
F0.0
sg7
F0.0
sssI20
(dp991
I0
(dp992
g4
F41.0
sg5
F0.024390243902439022
sg6
F0.024390243902439022
sg7
F1.0
ssI40
(dp993
g4
F40.0
sg5
F0.0
sg6
F0.0
sg7
F0.0
ssI10
(dp994
g4
F40.0
sg5
F0.0
sg6
F0.0
sg7
F0.0
ssI50
(dp995
g4
F39.0
sg5
F0.0
sg6
F0.0
sg7
F0.0
ssI20
(dp996
g4
F39.0
sg5
F0.0
sg6
F0.0
sg7
F0.0
ssI30
(dp997
g4
F40.0
sg5
F0.0
sg6
F0.0
sg7
F0.0
sssI21
(dp998
I0
(dp999
g4
F40.0
sg5
F0.0
sg6
F0.0
sg7
F0.0
ssI40
(dp1000
g4
F40.0
sg5
F0.0
sg6
F0.0
sg7
F0.0
ssI10
(dp1001
g4
F39.0
sg5
F0.0
sg6
F0.0
sg7
F0.0
ssI50
(dp1002
g4
F39.0
sg5
F0.0
sg6
F0.0
sg7
F0.0
ssI20
(dp1003
g4
F40.0
sg5
F0.0
sg6
F0.0
sg7
F0.0
ssI30
(dp1004
g4
F40.0
sg5
F0.0
sg6
F0.0
sg7
F0.0
sssI22
(dp1005
I0
(dp1006
g4
F40.0
sg5
F0.0
sg6
F0.0
sg7
F0.0
ssI40
(dp1007
g4
F40.0
sg5
F0.14807692307692308
sg6
F0.17500000000000002
sg7
F7.0
ssI10
(dp1008
g4
F40.0
sg5
F0.0
sg6
F0.0
sg7
F0.0
ssI50
(dp1009
g4
F40.0
sg5
F0.0
sg6
F0.0
sg7
F0.0
ssI20
(dp1010
g4
F40.0
sg5
F0.0
sg6
F0.0
sg7
F0.0
ssI30
(dp1011
g4
F39.0
sg5
F0.025641025641025637
sg6
F0.02564102564102564
sg7
F1.0
sssI23
(dp1012
I0
(dp1013
g4
F39.0
sg5
F0.15114709851551958
sg6
F0.17948717948717952
sg7
F7.0
ssI40
(dp1014
g4
F39.0
sg5
F0.0
sg6
F0.0
sg7
F0.0
ssI10
(dp1015
g4
F39.0
sg5
F0.0
sg6
F0.0
sg7
F0.0
ssI50
(dp1016
g4
F39.0
sg5
F0.0
sg6
F0.0
sg7
F0.0
ssI20
(dp1017
g4
F38.0
sg5
F0.0
sg6
F0.0
sg7
F0.0
ssI30
(dp1018
g4
F39.0
sg5
F0.0
sg6
F0.0
sg7
F0.0
ssssI6
(dp1019
I0
(dp1020
I0
(dp1021
g4
F38.0
sg5
F0.02631578947368421
sg6
F0.026315789473684216
sg7
F1.0
ssI40
(dp1022
g4
F40.0
sg5
F0.0
sg6
F0.0
sg7
F0.0
ssI10
(dp1023
g4
F40.0
sg5
F0.024999999999999998
sg6
F0.024999999999999998
sg7
F1.0
ssI50
(dp1024
g4
F39.0
sg5
F0.0
sg6
F0.0
sg7
F0.0
ssI20
(dp1025
g4
F40.0
sg5
F0.0
sg6
F0.0
sg7
F0.0
ssI30
(dp1026
g4
F40.0
sg5
F0.0
sg6
F0.0
sg7
F0.0
sssI1
(dp1027
I0
(dp1028
g4
F41.0
sg5
F0.0
sg6
F0.0
sg7
F0.0
ssI40
(dp1029
g4
F40.0
sg5
F0.0
sg6
F0.0
sg7
F0.0
ssI10
(dp1030
g4
F40.0
sg5
F0.024999999999999998
sg6
F0.025000000000000005
sg7
F1.0
ssI50
(dp1031
g4
F40.0
sg5
F0.0
sg6
F0.0
sg7
F0.0
ssI20
(dp1032
g4
F40.0
sg5
F0.0
sg6
F0.0
sg7
F0.0
ssI30
(dp1033
g4
F38.0
sg5
F0.02631578947368421
sg6
F0.02631578947368421
sg7
F1.0
sssI2
(dp1034
I0
(dp1035
g4
F26.0
sg5
F0.0
sg6
F0.0
sg7
F0.0
ssI40
(dp1036
g4
F33.0
sg5
F0.0
sg6
F0.0
sg7
F0.0
ssI10
(dp1037
g4
F33.0
sg5
F0.13257575757575757
sg6
F0.15151515151515152
sg7
F5.0
ssI50
(dp1038
g4
F33.0
sg5
F0.0
sg6
F0.0
sg7
F0.0
ssI20
(dp1039
g4
F32.0
sg5
F0.0
sg6
F0.0
sg7
F0.0
ssI30
(dp1040
g4
F32.0
sg5
F0.0
sg6
F0.0
sg7
F0.0
sssI3
(dp1041
I0
(dp1042
g4
F40.0
sg5
F0.14807692307692308
sg6
F0.17500000000000002
sg7
F7.0
ssI40
(dp1043
g4
F36.0
sg5
F0.0
sg6
F0.0
sg7
F0.0
ssI10
(dp1044
g4
F40.0
sg5
F0.0
sg6
F0.0
sg7
F0.0
ssI50
(dp1045
g4
F39.0
sg5
F0.0
sg6
F0.0
sg7
F0.0
ssI20
(dp1046
g4
F40.0
sg5
F0.0
sg6
F0.0
sg7
F0.0
ssI30
(dp1047
g4
F40.0
sg5
F0.0
sg6
F0.0
sg7
F0.0
sssI4
(dp1048
I0
(dp1049
g4
F42.0
sg5
F0.0
sg6
F0.0
sg7
F0.0
ssI40
(dp1050
g4
F39.0
sg5
F0.15114709851551958
sg6
F0.1794871794871795
sg7
F7.0
ssI10
(dp1051
g4
F40.0
sg5
F0.0
sg6
F0.0
sg7
F0.0
ssI50
(dp1052
g4
F39.0
sg5
F0.0
sg6
F0.0
sg7
F0.0
ssI20
(dp1053
g4
F40.0
sg5
F0.0
sg6
F0.0
sg7
F0.0
ssI30
(dp1054
g4
F39.0
sg5
F0.0
sg6
F0.0
sg7
F0.0
sssI5
(dp1055
I0
(dp1056
g4
F39.0
sg5
F0.0
sg6
F0.0
sg7
F0.0
ssI40
(dp1057
g4
F40.0
sg5
F0.0
sg6
F0.0
sg7
F0.0
ssI10
(dp1058
g4
F39.0
sg5
F0.0
sg6
F0.0
sg7
F0.0
ssI50
(dp1059
g4
F40.0
sg5
F0.0
sg6
F0.0
sg7
F0.0
ssI20
(dp1060
g4
F40.0
sg5
F0.0
sg6
F0.0
sg7
F0.0
ssI30
(dp1061
g4
F39.0
sg5
F0.0
sg6
F0.0
sg7
F0.0
sssI6
(dp1062
I0
(dp1063
g4
F40.0
sg5
F0.0
sg6
F0.0
sg7
F0.0
ssI40
(dp1064
g4
F39.0
sg5
F0.0
sg6
F0.0
sg7
F0.0
ssI10
(dp1065
g4
F40.0
sg5
F0.0
sg6
F0.0
sg7
F0.0
ssI50
(dp1066
g4
F40.0
sg5
F0.0
sg6
F0.0
sg7
F0.0
ssI20
(dp1067
g4
F40.0
sg5
F0.0
sg6
F0.0
sg7
F0.0
ssI30
(dp1068
g4
F40.0
sg5
F0.0
sg6
F0.0
sg7
F0.0
sssI7
(dp1069
I0
(dp1070
g4
F40.0
sg5
F2.5000000000000004
sg6
F0.25000000000000006
sg7
F10.0
ssI40
(dp1071
g4
F40.0
sg5
F12.537820512820513
sg6
F0.9749999999999999
sg7
F39.0
ssI10
(dp1072
g4
F40.0
sg5
F0.09999999999999998
sg6
F0.049999999999999996
sg7
F2.0
ssI50
(dp1073
g4
F40.0
sg5
F6.694871794871794
sg6
F0.6499999999999999
sg7
F26.0
ssI20
(dp1074
g4
F39.0
sg5
F0.1997300944669366
sg6
F0.10256410256410256
sg7
F4.0
ssI30
(dp1075
g4
F40.0
sg5
F0.21474358974358979
sg6
F0.12500000000000003
sg7
F5.0
sssI8
(dp1076
I0
(dp1077
g4
F40.0
sg5
F0.23333333333333336
sg6
F0.15
sg7
F6.0
ssI40
(dp1078
g4
F40.0
sg5
F0.024999999999999994
sg6
F0.025000000000000005
sg7
F1.0
ssI10
(dp1079
g4
F39.0
sg5
F0.7989203778677464
sg6
F0.20512820512820512
sg7
F8.0
ssI50
(dp1080
g4
F39.0
sg5
F0.377867746288799
sg6
F0.20512820512820518
sg7
F8.0
ssI20
(dp1081
g4
F40.0
sg5
F0.8589743589743591
sg6
F0.25000000000000006
sg7
F10.0
ssI30
(dp1082
g4
F40.0
sg5
F0.048717948717948725
sg6
F0.05000000000000001
sg7
F2.0
sssI9
(dp1083
I0
(dp1084
g4
F38.0
sg5
F2.8399715504978666
sg6
F0.3947368421052631
sg7
F15.0
ssI40
(dp1085
g4
F39.0
sg5
F10.74628879892038
sg6
F0.7948717948717949
sg7
F31.0
ssI10
(dp1086
g4
F40.0
sg5
F8.100000000000003
sg6
F0.44999999999999984
sg7
F18.0
ssI50
(dp1087
g4
F40.0
sg5
F11.358333333333336
sg6
F0.7749999999999999
sg7
F31.0
ssI20
(dp1088
g4
F39.0
sg5
F8.827260458839408
sg6
F0.5897435897435898
sg7
F23.0
ssI30
(dp1089
g4
F40.0
sg5
F10.281410256410258
sg6
F0.775
sg7
F31.0
sssI10
(dp1090
I0
(dp1091
g4
F40.0
sg5
F2.5070512820512825
sg6
F0.42499999999999993
sg7
F17.0
ssI40
(dp1092
g4
F40.0
sg5
F0.16410256410256413
sg6
F0.19999999999999998
sg7
F8.0
ssI10
(dp1093
g4
F40.0
sg5
F4.000000000000001
sg6
F0.5000000000000001
sg7
F20.0
ssI50
(dp1094
g4
F40.0
sg5
F1.6282051282051282
sg6
F0.25000000000000006
sg7
F10.0
ssI20
(dp1095
g4
F39.0
sg5
F0.6410256410256412
sg6
F0.20512820512820518
sg7
F8.0
ssI30
(dp1096
g4
F40.0
sg5
F0.2250000000000001
sg6
F0.07500000000000001
sg7
F3.0
sssI11
(dp1097
I0
(dp1098
g4
F40.0
sg5
F0.16346153846153846
sg6
F0.12500000000000003
sg7
F5.0
ssI40
(dp1099
g4
F40.0
sg5
F0.6435897435897436
sg6
F0.15
sg7
F6.0
ssI10
(dp1100
g4
F39.0
sg5
F0.10256410256410253
sg6
F0.05128205128205128
sg7
F2.0
ssI50
(dp1101
g4
F39.0
sg5
F0.025641025641025637
sg6
F0.02564102564102564
sg7
F1.0
ssI20
(dp1102
g4
F40.0
sg5
F0.2250000000000001
sg6
F0.07500000000000001
sg7
F3.0
ssI30
(dp1103
g4
F40.0
sg5
F2.025000000000001
sg6
F0.22499999999999992
sg7
F9.0
sssI12
(dp1104
I0
(dp1105
g4
F41.0
sg5
F0.024390243902439022
sg6
F0.024390243902439022
sg7
F1.0
ssI40
(dp1106
g4
F38.0
sg5
F0.10526315789473682
sg6
F0.05263157894736842
sg7
F2.0
ssI10
(dp1107
g4
F40.0
sg5
F0.41987179487179477
sg6
F0.12500000000000003
sg7
F5.0
ssI50
(dp1108
g4
F39.0
sg5
F0.07287449392712549
sg6
F0.07692307692307693
sg7
F3.0
ssI20
(dp1109
g4
F40.0
sg5
F0.2250000000000001
sg6
F0.07500000000000001
sg7
F3.0
ssI30
(dp1110
g4
F40.0
sg5
F0.04871794871794872
sg6
F0.049999999999999996
sg7
F2.0
sssI13
(dp1111
I0
(dp1112
g4
F39.0
sg5
F0.025641025641025637
sg6
F0.02564102564102564
sg7
F1.0
ssI40
(dp1113
g4
F40.0
sg5
F0.14807692307692308
sg6
F0.17500000000000002
sg7
F7.0
ssI10
(dp1114
g4
F40.0
sg5
F0.0
sg6
F0.0
sg7
F0.0
ssI50
(dp1115
g4
F40.0
sg5
F0.0
sg6
F0.0
sg7
F0.0
ssI20
(dp1116
g4
F38.0
sg5
F0.02631578947368421
sg6
F0.02631578947368421
sg7
F1.0
ssI30
(dp1117
g4
F38.0
sg5
F0.0
sg6
F0.0
sg7
F0.0
sssI14
(dp1118
I0
(dp1119
g4
F38.0
sg5
F0.02631578947368421
sg6
F0.02631578947368421
sg7
F1.0
ssI40
(dp1120
g4
F40.0
sg5
F0.0
sg6
F0.0
sg7
F0.0
ssI10
(dp1121
g4
F40.0
sg5
F0.0
sg6
F0.0
sg7
F0.0
ssI50
(dp1122
g4
F39.0
sg5
F0.0
sg6
F0.0
sg7
F0.0
ssI20
(dp1123
g4
F40.0
sg5
F0.0
sg6
F0.0
sg7
F0.0
ssI30
(dp1124
g4
F40.0
sg5
F0.0
sg6
F0.0
sg7
F0.0
sssI15
(dp1125
I0
(dp1126
g4
F40.0
sg5
F0.0
sg6
F0.0
sg7
F0.0
ssI40
(dp1127
g4
F40.0
sg5
F0.0
sg6
F0.0
sg7
F0.0
ssI10
(dp1128
g4
F40.0
sg5
F0.0
sg6
F0.0
sg7
F0.0
ssI50
(dp1129
g4
F40.0
sg5
F0.0
sg6
F0.0
sg7
F0.0
ssI20
(dp1130
g4
F40.0
sg5
F0.0
sg6
F0.0
sg7
F0.0
ssI30
(dp1131
g4
F39.0
sg5
F0.025641025641025637
sg6
F0.02564102564102564
sg7
F1.0
sssI16
(dp1132
I0
(dp1133
g4
F40.0
sg5
F0.09999999999999998
sg6
F0.049999999999999996
sg7
F2.0
ssI40
(dp1134
g4
F40.0
sg5
F0.14807692307692308
sg6
F0.17500000000000002
sg7
F7.0
ssI10
(dp1135
g4
F40.0
sg5
F0.0
sg6
F0.0
sg7
F0.0
ssI50
(dp1136
g4
F39.0
sg5
F0.0
sg6
F0.0
sg7
F0.0
ssI20
(dp1137
g4
F39.0
sg5
F0.0
sg6
F0.0
sg7
F0.0
ssI30
(dp1138
g4
F40.0
sg5
F0.024999999999999998
sg6
F0.025000000000000005
sg7
F1.0
sssI17
(dp1139
I0
(dp1140
g4
F37.0
sg5
F0.1081081081081081
sg6
F0.05405405405405405
sg7
F2.0
ssI40
(dp1141
g4
F38.0
sg5
F0.10526315789473684
sg6
F0.05263157894736842
sg7
F2.0
ssI10
(dp1142
g4
F39.0
sg5
F0.0
sg6
F0.0
sg7
F0.0
ssI50
(dp1143
g4
F36.0
sg5
F0.44444444444444436
sg6
F0.11111111111111116
sg7
F4.0
ssI20
(dp1144
g4
F38.0
sg5
F0.10526315789473684
sg6
F0.05263157894736842
sg7
F2.0
ssI30
(dp1145
g4
F38.0
sg5
F0.07467994310099574
sg6
F0.07894736842105263
sg7
F3.0
sssI18
(dp1146
I0
(dp1147
g4
F38.0
sg5
F0.42105263157894723
sg6
F0.10526315789473684
sg7
F4.0
ssI40
(dp1148
g4
F39.0
sg5
F0.0
sg6
F0.0
sg7
F0.0
ssI10
(dp1149
g4
F39.0
sg5
F0.41025641025641013
sg6
F0.10256410256410256
sg7
F4.0
ssI50
(dp1150
g4
F39.0
sg5
F0.02564102564102564
sg6
F0.02564102564102564
sg7
F1.0
ssI20
(dp1151
g4
F38.0
sg5
F0.42105263157894723
sg6
F0.10526315789473684
sg7
F4.0
ssI30
(dp1152
g4
F38.0
sg5
F0.0
sg6
F0.0
sg7
F0.0
sssI19
(dp1153
I0
(dp1154
g4
F38.0
sg5
F0.0
sg6
F0.0
sg7
F0.0
ssI40
(dp1155
g4
F38.0
sg5
F0.15433854907539118
sg6
F0.1842105263157895
sg7
F7.0
ssI10
(dp1156
g4
F38.0
sg5
F0.0
sg6
F0.0
sg7
F0.0
ssI50
(dp1157
g4
F38.0
sg5
F0.0
sg6
F0.0
sg7
F0.0
ssI20
(dp1158
g4
F37.0
sg5
F0.0
sg6
F0.0
sg7
F0.0
ssI30
(dp1159
g4
F38.0
sg5
F0.0
sg6
F0.0
sg7
F0.0
sssI20
(dp1160
I0
(dp1161
g4
F38.0
sg5
F0.0
sg6
F0.0
sg7
F0.0
ssI40
(dp1162
g4
F37.0
sg5
F0.0
sg6
F0.0
sg7
F0.0
ssI10
(dp1163
g4
F39.0
sg5
F0.0
sg6
F0.0
sg7
F0.0
ssI50
(dp1164
g4
F39.0
sg5
F0.0
sg6
F0.0
sg7
F0.0
ssI20
(dp1165
g4
F39.0
sg5
F0.0
sg6
F0.0
sg7
F0.0
ssI30
(dp1166
g4
F39.0
sg5
F0.0
sg6
F0.0
sg7
F0.0
sssI21
(dp1167
I0
(dp1168
g4
F41.0
sg5
F0.024390243902439025
sg6
F0.024390243902439022
sg7
F1.0
ssI40
(dp1169
g4
F38.0
sg5
F0.0
sg6
F0.0
sg7
F0.0
ssI10
(dp1170
g4
F38.0
sg5
F0.0
sg6
F0.0
sg7
F0.0
ssI50
(dp1171
g4
F39.0
sg5
F0.0
sg6
F0.0
sg7
F0.0
ssI20
(dp1172
g4
F37.0
sg5
F0.0
sg6
F0.0
sg7
F0.0
ssI30
(dp1173
g4
F37.0
sg5
F0.0
sg6
F0.0
sg7
F0.0
sssI22
(dp1174
I0
(dp1175
g4
F38.0
sg5
F0.0
sg6
F0.0
sg7
F0.0
ssI40
(dp1176
g4
F38.0
sg5
F0.15433854907539118
sg6
F0.1842105263157895
sg7
F7.0
ssI10
(dp1177
g4
F37.0
sg5
F0.0
sg6
F0.0
sg7
F0.0
ssI50
(dp1178
g4
F37.0
sg5
F0.0
sg6
F0.0
sg7
F0.0
ssI20
(dp1179
g4
F39.0
sg5
F0.0
sg6
F0.0
sg7
F0.0
ssI30
(dp1180
g4
F38.0
sg5
F0.0
sg6
F0.0
sg7
F0.0
sssI23
(dp1181
I0
(dp1182
g4
F37.0
sg5
F0.15765765765765768
sg6
F0.1891891891891892
sg7
F7.0
ssI40
(dp1183
g4
F39.0
sg5
F0.0
sg6
F0.0
sg7
F0.0
ssI10
(dp1184
g4
F40.0
sg5
F0.02499999999999999
sg6
F0.024999999999999998
sg7
F1.0
ssI50
(dp1185
g4
F39.0
sg5
F0.0
sg6
F0.0
sg7
F0.0
ssI20
(dp1186
g4
F40.0
sg5
F0.0
sg6
F0.0
sg7
F0.0
ssI30
(dp1187
g4
F40.0
sg5
F0.0
sg6
F0.0
sg7
F0.0
ssss.