(dp0
I0
(dp1
I0
(dp2
I0
(dp3
S'count'
p4
I0
sS'variance'
p5
F0.0
sS'average'
p6
F0.0
sS'total'
p7
F0.0
ssI40
(dp8
g4
I0
sg5
F0.0
sg6
F0.0
sg7
F0.0
ssI10
(dp9
g4
I0
sg5
F0.0
sg6
F0.0
sg7
F0.0
ssI50
(dp10
g4
I0
sg5
F0.0
sg6
F0.0
sg7
F0.0
ssI20
(dp11
g4
I0
sg5
F0.0
sg6
F0.0
sg7
F0.0
ssI30
(dp12
g4
I0
sg5
F0.0
sg6
F0.0
sg7
F0.0
sssI1
(dp13
I0
(dp14
g4
I0
sg5
F0.0
sg6
F0.0
sg7
F0.0
ssI40
(dp15
g4
I0
sg5
F0.0
sg6
F0.0
sg7
F0.0
ssI10
(dp16
g4
I0
sg5
F0.0
sg6
F0.0
sg7
F0.0
ssI50
(dp17
g4
I0
sg5
F0.0
sg6
F0.0
sg7
F0.0
ssI20
(dp18
g4
I0
sg5
F0.0
sg6
F0.0
sg7
F0.0
ssI30
(dp19
g4
I0
sg5
F0.0
sg6
F0.0
sg7
F0.0
sssI2
(dp20
I0
(dp21
g4
I0
sg5
F0.0
sg6
F0.0
sg7
F0.0
ssI40
(dp22
g4
I0
sg5
F0.0
sg6
F0.0
sg7
F0.0
ssI10
(dp23
g4
I0
sg5
F0.0
sg6
F0.0
sg7
F0.0
ssI50
(dp24
g4
I0
sg5
F0.0
sg6
F0.0
sg7
F0.0
ssI20
(dp25
g4
I0
sg5
F0.0
sg6
F0.0
sg7
F0.0
ssI30
(dp26
g4
I0
sg5
F0.0
sg6
F0.0
sg7
F0.0
sssI3
(dp27
I0
(dp28
g4
I0
sg5
F0.0
sg6
F0.0
sg7
F0.0
ssI40
(dp29
g4
I0
sg5
F0.0
sg6
F0.0
sg7
F0.0
ssI10
(dp30
g4
I0
sg5
F0.0
sg6
F0.0
sg7
F0.0
ssI50
(dp31
g4
I0
sg5
F0.0
sg6
F0.0
sg7
F0.0
ssI20
(dp32
g4
I0
sg5
F0.0
sg6
F0.0
sg7
F0.0
ssI30
(dp33
g4
I0
sg5
F0.0
sg6
F0.0
sg7
F0.0
sssI4
(dp34
I0
(dp35
g4
I0
sg5
F0.0
sg6
F0.0
sg7
F0.0
ssI40
(dp36
g4
I0
sg5
F0.0
sg6
F0.0
sg7
F0.0
ssI10
(dp37
g4
I0
sg5
F0.0
sg6
F0.0
sg7
F0.0
ssI50
(dp38
g4
I0
sg5
F0.0
sg6
F0.0
sg7
F0.0
ssI20
(dp39
g4
I0
sg5
F0.0
sg6
F0.0
sg7
F0.0
ssI30
(dp40
g4
I0
sg5
F0.0
sg6
F0.0
sg7
F0.0
sssI5
(dp41
I0
(dp42
g4
I0
sg5
F0.0
sg6
F0.0
sg7
F0.0
ssI40
(dp43
g4
I0
sg5
F0.0
sg6
F0.0
sg7
F0.0
ssI10
(dp44
g4
I0
sg5
F0.0
sg6
F0.0
sg7
F0.0
ssI50
(dp45
g4
I0
sg5
F0.0
sg6
F0.0
sg7
F0.0
ssI20
(dp46
g4
I0
sg5
F0.0
sg6
F0.0
sg7
F0.0
ssI30
(dp47
g4
I0
sg5
F0.0
sg6
F0.0
sg7
F0.0
sssI6
(dp48
I0
(dp49
g4
I0
sg5
F0.0
sg6
F0.0
sg7
F0.0
ssI40
(dp50
g4
I0
sg5
F0.0
sg6
F0.0
sg7
F0.0
ssI10
(dp51
g4
I0
sg5
F0.0
sg6
F0.0
sg7
F0.0
ssI50
(dp52
g4
I0
sg5
F0.0
sg6
F0.0
sg7
F0.0
ssI20
(dp53
g4
I0
sg5
F0.0
sg6
F0.0
sg7
F0.0
ssI30
(dp54
g4
I0
sg5
F0.0
sg6
F0.0
sg7
F0.0
sssI7
(dp55
I0
(dp56
g4
I0
sg5
F0.0
sg6
F0.0
sg7
F0.0
ssI40
(dp57
g4
I0
sg5
F0.0
sg6
F0.0
sg7
F0.0
ssI10
(dp58
g4
I0
sg5
F0.0
sg6
F0.0
sg7
F0.0
ssI50
(dp59
g4
I0
sg5
F0.0
sg6
F0.0
sg7
F0.0
ssI20
(dp60
g4
I0
sg5
F0.0
sg6
F0.0
sg7
F0.0
ssI30
(dp61
g4
I0
sg5
F0.0
sg6
F0.0
sg7
F0.0
sssI8
(dp62
I0
(dp63
g4
I45
sg5
F152.3111111111111
sg6
F0.7555555555555558
sg7
F34.0
ssI40
(dp64
g4
I47
sg5
F535.7446808510638
sg6
F1.4893617021276597
sg7
F70.0
ssI10
(dp65
g4
I47
sg5
F374.46808510638294
sg6
F0.8936170212765961
sg7
F42.0
ssI50
(dp66
g4
I48
sg5
F969.9166666666667
sg6
F1.7083333333333335
sg7
F82.0
ssI20
(dp67
g4
I47
sg5
F441.10638297872333
sg6
F1.382978723404255
sg7
F65.0
ssI30
(dp68
g4
I48
sg5
F602.3125000000002
sg6
F1.6875000000000002
sg7
F81.0
sssI9
(dp69
I0
(dp70
g4
I49
sg5
F546.122448979592
sg6
F1.5510204081632655
sg7
F76.0
ssI40
(dp71
g4
I46
sg5
F986.804347826087
sg6
F2.0652173913043477
sg7
F95.0
ssI10
(dp72
g4
I48
sg5
F4399.312499999999
sg6
F2.812499999999999
sg7
F135.0
ssI50
(dp73
g4
I47
sg5
F506.63829787234033
sg6
F1.1702127659574466
sg7
F55.0
ssI20
(dp74
g4
I45
sg5
F508.80000000000007
sg6
F1.2666666666666668
sg7
F57.0
ssI30
(dp75
g4
I47
sg5
F1109.659574468085
sg6
F2.0851063829787235
sg7
F98.0
sssI10
(dp76
I0
(dp77
g4
I48
sg5
F23.979166666666668
sg6
F0.5208333333333331
sg7
F25.0
ssI40
(dp78
g4
I47
sg5
F187.82978723404247
sg6
F1.297872340425532
sg7
F61.0
ssI10
(dp79
g4
I46
sg5
F213.93478260869568
sg6
F1.1521739130434785
sg7
F53.0
ssI50
(dp80
g4
I45
sg5
F65.9111111111111
sg6
F0.8444444444444444
sg7
F38.0
ssI20
(dp81
g4
I48
sg5
F79.91666666666667
sg6
F0.9583333333333333
sg7
F46.0
ssI30
(dp82
g4
I47
sg5
F401.99999999999994
sg6
F1.9999999999999993
sg7
F94.0
sssI11
(dp83
I0
(dp84
g4
I46
sg5
F62.80434782608699
sg6
F0.9347826086956527
sg7
F43.0
ssI40
(dp85
g4
I47
sg5
F36.80851063829787
sg6
F0.9361702127659574
sg7
F44.0
ssI10
(dp86
g4
I47
sg5
F82.00000000000003
sg6
F1.0000000000000002
sg7
F47.0
ssI50
(dp87
g4
I47
sg5
F67.23404255319147
sg6
F0.8723404255319148
sg7
F41.0
ssI20
(dp88
g4
I47
sg5
F57.276595744680854
sg6
F0.8085106382978727
sg7
F38.0
ssI30
(dp89
g4
I46
sg5
F33.82608695652174
sg6
F0.7826086956521741
sg7
F36.0
sssI12
(dp90
I0
(dp91
g4
I47
sg5
F50.425531914893604
sg6
F0.7659574468085106
sg7
F36.0
ssI40
(dp92
g4
I47
sg5
F170.46808510638297
sg6
F1.1063829787234045
sg7
F52.0
ssI10
(dp93
g4
I46
sg5
F38.3695652173913
sg6
F0.7608695652173912
sg7
F35.0
ssI50
(dp94
g4
I46
sg5
F209.7391304347826
sg6
F1.3043478260869563
sg7
F60.0
ssI20
(dp95
g4
I47
sg5
F248.42553191489364
sg6
F1.2340425531914894
sg7
F58.0
ssI30
(dp96
g4
I46
sg5
F148.6086956521739
sg6
F1.1739130434782608
sg7
F54.0
sssI13
(dp97
I0
(dp98
g4
I47
sg5
F166.80851063829786
sg6
F0.9361702127659575
sg7
F44.0
ssI40
(dp99
g4
I46
sg5
F25.413043478260867
sg6
F0.5434782608695652
sg7
F25.0
ssI10
(dp100
g4
I46
sg5
F125.93478260869568
sg6
F0.8478260869565217
sg7
F39.0
ssI50
(dp101
g4
I47
sg5
F41.82978723404254
sg6
F0.7021276595744682
sg7
F33.0
ssI20
(dp102
g4
I46
sg5
F85.65217391304348
sg6
F0.91304347826087
sg7
F42.0
ssI30
(dp103
g4
I46
sg5
F309.6521739130435
sg6
F1.0869565217391304
sg7
F50.0
sssI14
(dp104
I0
(dp105
g4
I47
sg5
F100.80851063829785
sg6
F0.9361702127659577
sg7
F44.0
ssI40
(dp106
g4
I47
sg5
F75.8723404255319
sg6
F0.7872340425531914
sg7
F37.0
ssI10
(dp107
g4
I47
sg5
F28.5531914893617
sg6
F0.3404255319148936
sg7
F16.0
ssI50
(dp108
g4
I47
sg5
F99.2340425531915
sg6
F0.8723404255319149
sg7
F41.0
ssI20
(dp109
g4
I46
sg5
F39.478260869565226
sg6
F0.4782608695652173
sg7
F22.0
ssI30
(dp110
g4
I46
sg5
F81.93478260869566
sg6
F0.8478260869565217
sg7
F39.0
sssI15
(dp111
I0
(dp112
g4
I46
sg5
F38.95652173913043
sg6
F0.608695652173913
sg7
F28.0
ssI40
(dp113
g4
I47
sg5
F77.65957446808511
sg6
F0.914893617021277
sg7
F43.0
ssI10
(dp114
g4
I45
sg5
F22.31111111111112
sg6
F0.3555555555555557
sg7
F16.0
ssI50
(dp115
g4
I45
sg5
F79.91111111111111
sg6
F1.0444444444444443
sg7
F47.0
ssI20
(dp116
g4
I47
sg5
F48.851063829787215
sg6
F0.6382978723404255
sg7
F30.0
ssI30
(dp117
g4
I47
sg5
F30.936170212765965
sg6
F0.7446808510638299
sg7
F35.0
sssI16
(dp118
I0
(dp119
g4
I48
sg5
F130.9791666666667
sg6
F0.9791666666666664
sg7
F47.0
ssI40
(dp120
g4
I47
sg5
F181.9574468085106
sg6
F1.1489361702127663
sg7
F54.0
ssI10
(dp121
g4
I47
sg5
F31.744680851063826
sg6
F0.5106382978723402
sg7
F24.0
ssI50
(dp122
g4
I47
sg5
F145.95744680851067
sg6
F0.8510638297872338
sg7
F40.0
ssI20
(dp123
g4
I47
sg5
F56.851063829787236
sg6
F0.6382978723404255
sg7
F30.0
ssI30
(dp124
g4
I45
sg5
F158.31111111111113
sg6
F1.2444444444444445
sg7
F56.0
sssI17
(dp125
I0
(dp126
g4
I46
sg5
F202.86956521739125
sg6
F0.7391304347826086
sg7
F34.0
ssI40
(dp127
g4
I48
sg5
F405.8125
sg6
F1.4375000000000004
sg7
F69.0
ssI10
(dp128
g4
I47
sg5
F200.8085106382979
sg6
F0.9361702127659576
sg7
F44.0
ssI50
(dp129
g4
I47
sg5
F220.0
sg6
F0.9999999999999999
sg7
F47.0
ssI20
(dp130
g4
I46
sg5
F260.86956521739125
sg6
F1.2608695652173916
sg7
F58.0
ssI30
(dp131
g4
I47
sg5
F443.82978723404256
sg6
F1.7021276595744683
sg7
F80.0
sssI18
(dp132
I0
(dp133
g4
I45
sg5
F241.91111111111107
sg6
F0.8444444444444442
sg7
F38.0
ssI40
(dp134
g4
I47
sg5
F167.95744680851067
sg6
F0.8510638297872342
sg7
F40.0
ssI10
(dp135
g4
I47
sg5
F165.87234042553192
sg6
F0.7872340425531913
sg7
F37.0
ssI50
(dp136
g4
I46
sg5
F366.9782608695652
sg6
F0.9782608695652174
sg7
F45.0
ssI20
(dp137
g4
I47
sg5
F207.2340425531915
sg6
F0.8723404255319149
sg7
F41.0
ssI30
(dp138
g4
I47
sg5
F190.97872340425536
sg6
F1.021276595744681
sg7
F48.0
sssI19
(dp139
I0
(dp140
g4
I47
sg5
F222.63829787234033
sg6
F0.8297872340425532
sg7
F39.0
ssI40
(dp141
g4
I47
sg5
F256.46808510638294
sg6
F0.8936170212765953
sg7
F42.0
ssI10
(dp142
g4
I46
sg5
F239.32608695652175
sg6
F0.7173913043478262
sg7
F33.0
ssI50
(dp143
g4
I47
sg5
F288.468085106383
sg6
F0.8936170212765959
sg7
F42.0
ssI20
(dp144
g4
I47
sg5
F224.93617021276594
sg6
F0.7446808510638298
sg7
F35.0
ssI30
(dp145
g4
I46
sg5
F195.82608695652172
sg6
F0.7826086956521737
sg7
F36.0
sssI20
(dp146
I0
(dp147
g4
I47
sg5
F231.2765957446808
sg6
F0.8085106382978724
sg7
F38.0
ssI40
(dp148
g4
I47
sg5
F220.21276595744683
sg6
F0.6808510638297874
sg7
F32.0
ssI10
(dp149
g4
I46
sg5
F315.2391304347826
sg6
F0.8043478260869567
sg7
F37.0
ssI50
(dp150
g4
I46
sg5
F190.43478260869568
sg6
F0.6521739130434782
sg7
F30.0
ssI20
(dp151
g4
I47
sg5
F178.42553191489364
sg6
F0.7659574468085105
sg7
F36.0
ssI30
(dp152
g4
I47
sg5
F210.21276595744683
sg6
F0.6808510638297871
sg7
F32.0
sssI21
(dp153
I0
(dp154
g4
I47
sg5
F185.31914893617014
sg6
F0.595744680851064
sg7
F28.0
ssI40
(dp155
g4
I46
sg5
F206.10869565217388
sg6
F0.6739130434782606
sg7
F31.0
ssI10
(dp156
g4
I47
sg5
F188.21276595744686
sg6
F0.6808510638297874
sg7
F32.0
ssI50
(dp157
g4
I47
sg5
F223.82978723404258
sg6
F0.7021276595744681
sg7
F33.0
ssI20
(dp158
g4
I47
sg5
F271.82978723404256
sg6
F0.7021276595744683
sg7
F33.0
ssI30
(dp159
g4
I47
sg5
F228.93617021276597
sg6
F0.7446808510638299
sg7
F35.0
sssI22
(dp160
I0
(dp161
g4
I0
sg5
F0.0
sg6
F0.0
sg7
F0.0
ssI40
(dp162
g4
I0
sg5
F0.0
sg6
F0.0
sg7
F0.0
ssI10
(dp163
g4
I0
sg5
F0.0
sg6
F0.0
sg7
F0.0
ssI50
(dp164
g4
I0
sg5
F0.0
sg6
F0.0
sg7
F0.0
ssI20
(dp165
g4
I0
sg5
F0.0
sg6
F0.0
sg7
F0.0
ssI30
(dp166
g4
I0
sg5
F0.0
sg6
F0.0
sg7
F0.0
sssI23
(dp167
I0
(dp168
g4
I0
sg5
F0.0
sg6
F0.0
sg7
F0.0
ssI40
(dp169
g4
I0
sg5
F0.0
sg6
F0.0
sg7
F0.0
ssI10
(dp170
g4
I0
sg5
F0.0
sg6
F0.0
sg7
F0.0
ssI50
(dp171
g4
I0
sg5
F0.0
sg6
F0.0
sg7
F0.0
ssI20
(dp172
g4
I0
sg5
F0.0
sg6
F0.0
sg7
F0.0
ssI30
(dp173
g4
I0
sg5
F0.0
sg6
F0.0
sg7
F0.0
ssssI1
(dp174
I0
(dp175
I0
(dp176
g4
I0
sg5
F0.0
sg6
F0.0
sg7
F0.0
ssI40
(dp177
g4
I0
sg5
F0.0
sg6
F0.0
sg7
F0.0
ssI10
(dp178
g4
I0
sg5
F0.0
sg6
F0.0
sg7
F0.0
ssI50
(dp179
g4
I0
sg5
F0.0
sg6
F0.0
sg7
F0.0
ssI20
(dp180
g4
I0
sg5
F0.0
sg6
F0.0
sg7
F0.0
ssI30
(dp181
g4
I0
sg5
F0.0
sg6
F0.0
sg7
F0.0
sssI1
(dp182
I0
(dp183
g4
I0
sg5
F0.0
sg6
F0.0
sg7
F0.0
ssI40
(dp184
g4
I0
sg5
F0.0
sg6
F0.0
sg7
F0.0
ssI10
(dp185
g4
I0
sg5
F0.0
sg6
F0.0
sg7
F0.0
ssI50
(dp186
g4
I0
sg5
F0.0
sg6
F0.0
sg7
F0.0
ssI20
(dp187
g4
I0
sg5
F0.0
sg6
F0.0
sg7
F0.0
ssI30
(dp188
g4
I0
sg5
F0.0
sg6
F0.0
sg7
F0.0
sssI2
(dp189
I0
(dp190
g4
I0
sg5
F0.0
sg6
F0.0
sg7
F0.0
ssI40
(dp191
g4
I0
sg5
F0.0
sg6
F0.0
sg7
F0.0
ssI10
(dp192
g4
I0
sg5
F0.0
sg6
F0.0
sg7
F0.0
ssI50
(dp193
g4
I0
sg5
F0.0
sg6
F0.0
sg7
F0.0
ssI20
(dp194
g4
I0
sg5
F0.0
sg6
F0.0
sg7
F0.0
ssI30
(dp195
g4
I0
sg5
F0.0
sg6
F0.0
sg7
F0.0
sssI3
(dp196
I0
(dp197
g4
I0
sg5
F0.0
sg6
F0.0
sg7
F0.0
ssI40
(dp198
g4
I0
sg5
F0.0
sg6
F0.0
sg7
F0.0
ssI10
(dp199
g4
I0
sg5
F0.0
sg6
F0.0
sg7
F0.0
ssI50
(dp200
g4
I0
sg5
F0.0
sg6
F0.0
sg7
F0.0
ssI20
(dp201
g4
I0
sg5
F0.0
sg6
F0.0
sg7
F0.0
ssI30
(dp202
g4
I0
sg5
F0.0
sg6
F0.0
sg7
F0.0
sssI4
(dp203
I0
(dp204
g4
I0
sg5
F0.0
sg6
F0.0
sg7
F0.0
ssI40
(dp205
g4
I0
sg5
F0.0
sg6
F0.0
sg7
F0.0
ssI10
(dp206
g4
I0
sg5
F0.0
sg6
F0.0
sg7
F0.0
ssI50
(dp207
g4
I0
sg5
F0.0
sg6
F0.0
sg7
F0.0
ssI20
(dp208
g4
I0
sg5
F0.0
sg6
F0.0
sg7
F0.0
ssI30
(dp209
g4
I0
sg5
F0.0
sg6
F0.0
sg7
F0.0
sssI5
(dp210
I0
(dp211
g4
I0
sg5
F0.0
sg6
F0.0
sg7
F0.0
ssI40
(dp212
g4
I0
sg5
F0.0
sg6
F0.0
sg7
F0.0
ssI10
(dp213
g4
I0
sg5
F0.0
sg6
F0.0
sg7
F0.0
ssI50
(dp214
g4
I0
sg5
F0.0
sg6
F0.0
sg7
F0.0
ssI20
(dp215
g4
I0
sg5
F0.0
sg6
F0.0
sg7
F0.0
ssI30
(dp216
g4
I0
sg5
F0.0
sg6
F0.0
sg7
F0.0
sssI6
(dp217
I0
(dp218
g4
I0
sg5
F0.0
sg6
F0.0
sg7
F0.0
ssI40
(dp219
g4
I0
sg5
F0.0
sg6
F0.0
sg7
F0.0
ssI10
(dp220
g4
I0
sg5
F0.0
sg6
F0.0
sg7
F0.0
ssI50
(dp221
g4
I0
sg5
F0.0
sg6
F0.0
sg7
F0.0
ssI20
(dp222
g4
I0
sg5
F0.0
sg6
F0.0
sg7
F0.0
ssI30
(dp223
g4
I0
sg5
F0.0
sg6
F0.0
sg7
F0.0
sssI7
(dp224
I0
(dp225
g4
I0
sg5
F0.0
sg6
F0.0
sg7
F0.0
ssI40
(dp226
g4
I0
sg5
F0.0
sg6
F0.0
sg7
F0.0
ssI10
(dp227
g4
I0
sg5
F0.0
sg6
F0.0
sg7
F0.0
ssI50
(dp228
g4
I0
sg5
F0.0
sg6
F0.0
sg7
F0.0
ssI20
(dp229
g4
I0
sg5
F0.0
sg6
F0.0
sg7
F0.0
ssI30
(dp230
g4
I0
sg5
F0.0
sg6
F0.0
sg7
F0.0
sssI8
(dp231
I0
(dp232
g4
I41
sg5
F338.43902439024384
sg6
F1.1951219512195121
sg7
F49.0
ssI40
(dp233
g4
I36
sg5
F384.97222222222246
sg6
F1.972222222222223
sg7
F71.0
ssI10
(dp234
g4
I46
sg5
F86.60869565217389
sg6
F0.8260869565217392
sg7
F38.0
ssI50
(dp235
g4
I36
sg5
F380.75000000000006
sg6
F1.4166666666666667
sg7
F51.0
ssI20
(dp236
g4
I46
sg5
F92.97826086956519
sg6
F1.0217391304347823
sg7
F47.0
ssI30
(dp237
g4
I38
sg5
F196.8684210526316
sg6
F1.7631578947368418
sg7
F67.0
sssI9
(dp238
I0
(dp239
g4
I34
sg5
F229.76470588235296
sg6
F1.352941176470588
sg7
F46.0
ssI40
(dp240
g4
I37
sg5
F618.8108108108112
sg6
F2.756756756756756
sg7
F102.0
ssI10
(dp241
g4
I37
sg5
F203.29729729729726
sg6
F1.2702702702702704
sg7
F47.0
ssI50
(dp242
g4
I37
sg5
F495.5675675675675
sg6
F1.891891891891892
sg7
F70.0
ssI20
(dp243
g4
I38
sg5
F243.47368421052636
sg6
F1.473684210526316
sg7
F56.0
ssI30
(dp244
g4
I37
sg5
F736.8108108108106
sg6
F3.243243243243243
sg7
F120.0
sssI10
(dp245
I0
(dp246
g4
I37
sg5
F425.02702702702703
sg6
F1.837837837837838
sg7
F68.0
ssI40
(dp247
g4
I37
sg5
F690.108108108108
sg6
F2.675675675675675
sg7
F99.0
ssI10
(dp248
g4
I37
sg5
F226.32432432432435
sg6
F1.8648648648648645
sg7
F69.0
ssI50
(dp249
g4
I37
sg5
F480.27027027027026
sg6
F2.2162162162162167
sg7
F82.0
ssI20
(dp250
g4
I37
sg5
F249.2972972972973
sg6
F1.7297297297297298
sg7
F64.0
ssI30
(dp251
g4
I37
sg5
F302.7567567567566
sg6
F2.9189189189189193
sg7
F108.0
sssI11
(dp252
I0
(dp253
g4
I36
sg5
F188.30555555555557
sg6
F1.6388888888888888
sg7
F59.0
ssI40
(dp254
g4
I36
sg5
F168.97222222222217
sg6
F1.4722222222222225
sg7
F53.0
ssI10
(dp255
g4
I37
sg5
F743.7297297297298
sg6
F2.297297297297297
sg7
F85.0
ssI50
(dp256
g4
I37
sg5
F142.3243243243243
sg6
F1.135135135135135
sg7
F42.0
ssI20
(dp257
g4
I37
sg5
F392.3243243243244
sg6
F1.8648648648648647
sg7
F69.0
ssI30
(dp258
g4
I37
sg5
F241.027027027027
sg6
F1.837837837837838
sg7
F68.0
sssI12
(dp259
I0
(dp260
g4
I37
sg5
F115.02702702702703
sg6
F1.162162162162162
sg7
F43.0
ssI40
(dp261
g4
I38
sg5
F196.00000000000003
sg6
F1.0000000000000002
sg7
F38.0
ssI10
(dp262
g4
I38
sg5
F97.99999999999999
sg6
F1.0000000000000002
sg7
F38.0
ssI50
(dp263
g4
I37
sg5
F315.7297297297297
sg6
F1.2972972972972974
sg7
F48.0
ssI20
(dp264
g4
I38
sg5
F221.26315789473682
sg6
F1.4210526315789471
sg7
F54.0
ssI30
(dp265
g4
I39
sg5
F229.74358974358975
sg6
F1.487179487179487
sg7
F58.0
sssI13
(dp266
I0
(dp267
g4
I39
sg5
F192.35897435897436
sg6
F1.1282051282051282
sg7
F44.0
ssI40
(dp268
g4
I38
sg5
F265.57894736842104
sg6
F1.1052631578947367
sg7
F42.0
ssI10
(dp269
g4
I38
sg5
F202.3157894736842
sg6
F0.7894736842105263
sg7
F30.0
ssI50
(dp270
g4
I38
sg5
F206.76315789473685
sg6
F0.9210526315789475
sg7
F35.0
ssI20
(dp271
g4
I38
sg5
F165.89473684210526
sg6
F0.9473684210526315
sg7
F36.0
ssI30
(dp272
g4
I38
sg5
F186.76315789473685
sg6
F0.9210526315789472
sg7
F35.0
sssI14
(dp273
I0
(dp274
g4
I38
sg5
F202.97368421052633
sg6
F0.973684210526316
sg7
F37.0
ssI40
(dp275
g4
I38
sg5
F194.86842105263156
sg6
F1.2368421052631577
sg7
F47.0
ssI10
(dp276
g4
I38
sg5
F251.71052631578942
sg6
F0.8157894736842106
sg7
F31.0
ssI50
(dp277
g4
I38
sg5
F155.8947368421052
sg6
F0.9473684210526313
sg7
F36.0
ssI20
(dp278
g4
I38
sg5
F214.3421052631579
sg6
F0.868421052631579
sg7
F33.0
ssI30
(dp279
g4
I38
sg5
F162.21052631578948
sg6
F0.6842105263157893
sg7
F26.0
sssI15
(dp280
I0
(dp281
g4
I37
sg5
F285.6756756756757
sg6
F1.189189189189189
sg7
F44.0
ssI40
(dp282
g4
I38
sg5
F457.47368421052624
sg6
F1.5263157894736843
sg7
F58.0
ssI10
(dp283
g4
I38
sg5
F251.89473684210526
sg6
F0.9473684210526316
sg7
F36.0
ssI50
(dp284
g4
I37
sg5
F328.75675675675683
sg6
F1.0810810810810811
sg7
F40.0
ssI20
(dp285
g4
I38
sg5
F104.84210526315793
sg6
F0.6315789473684211
sg7
F24.0
ssI30
(dp286
g4
I38
sg5
F303.47368421052624
sg6
F1.4736842105263157
sg7
F56.0
sssI16
(dp287
I0
(dp288
g4
I37
sg5
F321.67567567567556
sg6
F1.1891891891891888
sg7
F44.0
ssI40
(dp289
g4
I38
sg5
F327.4736842105263
sg6
F1.5263157894736843
sg7
F58.0
ssI10
(dp290
g4
I38
sg5
F383.0526315789473
sg6
F1.157894736842105
sg7
F44.0
ssI50
(dp291
g4
I38
sg5
F363.8157894736842
sg6
F1.289473684210526
sg7
F49.0
ssI20
(dp292
g4
I37
sg5
F302.2702702702703
sg6
F1.216216216216216
sg7
F45.0
ssI30
(dp293
g4
I38
sg5
F452.97368421052647
sg6
F1.973684210526316
sg7
F75.0
sssI17
(dp294
I0
(dp295
g4
I38
sg5
F128.3157894736842
sg6
F0.7894736842105263
sg7
F30.0
ssI40
(dp296
g4
I38
sg5
F184.86842105263153
sg6
F1.236842105263158
sg7
F47.0
ssI10
(dp297
g4
I37
sg5
F417.027027027027
sg6
F1.1621621621621618
sg7
F43.0
ssI50
(dp298
g4
I38
sg5
F224.7631578947368
sg6
F1.0789473684210527
sg7
F41.0
ssI20
(dp299
g4
I37
sg5
F457.2432432432432
sg6
F1.5135135135135138
sg7
F56.0
ssI30
(dp300
g4
I37
sg5
F211.24324324324317
sg6
F1.4864864864864868
sg7
F55.0
sssI18
(dp301
I0
(dp302
g4
I39
sg5
F132.3076923076923
sg6
F0.6923076923076922
sg7
F27.0
ssI40
(dp303
g4
I38
sg5
F114.55263157894734
sg6
F0.6578947368421053
sg7
F25.0
ssI10
(dp304
g4
I38
sg5
F110.86842105263158
sg6
F0.763157894736842
sg7
F29.0
ssI50
(dp305
g4
I37
sg5
F85.0810810810811
sg6
F0.5675675675675675
sg7
F21.0
ssI20
(dp306
g4
I38
sg5
F209.578947368421
sg6
F0.8947368421052633
sg7
F34.0
ssI30
(dp307
g4
I38
sg5
F100.84210526315788
sg6
F0.6315789473684209
sg7
F24.0
sssI19
(dp308
I0
(dp309
g4
I38
sg5
F89.26315789473685
sg6
F0.42105263157894723
sg7
F16.0
ssI40
(dp310
g4
I38
sg5
F101.39473684210525
sg6
F0.5526315789473685
sg7
F21.0
ssI10
(dp311
g4
I38
sg5
F77.26315789473686
sg6
F0.42105263157894735
sg7
F16.0
ssI50
(dp312
g4
I38
sg5
F95.39473684210529
sg6
F0.4473684210526315
sg7
F17.0
ssI20
(dp313
g4
I38
sg5
F97.39473684210523
sg6
F0.5526315789473684
sg7
F21.0
ssI30
(dp314
g4
I38
sg5
F111.07894736842108
sg6
F0.3947368421052631
sg7
F15.0
sssI20
(dp315
I0
(dp316
g4
I38
sg5
F78.8684210526316
sg6
F0.23684210526315783
sg7
F9.0
ssI40
(dp317
g4
I38
sg5
F164.55263157894737
sg6
F0.3421052631578948
sg7
F13.0
ssI10
(dp318
g4
I38
sg5
F62.868421052631554
sg6
F0.23684210526315788
sg7
F9.0
ssI50
(dp319
g4
I38
sg5
F191.078947368421
sg6
F0.3947368421052631
sg7
F15.0
ssI20
(dp320
g4
I38
sg5
F78.8684210526316
sg6
F0.23684210526315783
sg7
F9.0
ssI30
(dp321
g4
I38
sg5
F62.31578947368419
sg6
F0.21052631578947378
sg7
F8.0
sssI21
(dp322
I0
(dp323
g4
I38
sg5
F97.36842105263159
sg6
F0.26315789473684215
sg7
F10.0
ssI40
(dp324
g4
I38
sg5
F78.8684210526316
sg6
F0.23684210526315783
sg7
F9.0
ssI10
(dp325
g4
I38
sg5
F164.55263157894737
sg6
F0.3421052631578948
sg7
F13.0
ssI50
(dp326
g4
I38
sg5
F117.81578947368419
sg6
F0.2894736842105262
sg7
F11.0
ssI20
(dp327
g4
I38
sg5
F117.81578947368419
sg6
F0.2894736842105262
sg7
F11.0
ssI30
(dp328
g4
I38
sg5
F117.81578947368419
sg6
F0.2894736842105262
sg7
F11.0
sssI22
(dp329
I0
(dp330
g4
I0
sg5
F0.0
sg6
F0.0
sg7
F0.0
ssI40
(dp331
g4
I0
sg5
F0.0
sg6
F0.0
sg7
F0.0
ssI10
(dp332
g4
I0
sg5
F0.0
sg6
F0.0
sg7
F0.0
ssI50
(dp333
g4
I0
sg5
F0.0
sg6
F0.0
sg7
F0.0
ssI20
(dp334
g4
I0
sg5
F0.0
sg6
F0.0
sg7
F0.0
ssI30
(dp335
g4
I0
sg5
F0.0
sg6
F0.0
sg7
F0.0
sssI23
(dp336
I0
(dp337
g4
I0
sg5
F0.0
sg6
F0.0
sg7
F0.0
ssI40
(dp338
g4
I0
sg5
F0.0
sg6
F0.0
sg7
F0.0
ssI10
(dp339
g4
I0
sg5
F0.0
sg6
F0.0
sg7
F0.0
ssI50
(dp340
g4
I0
sg5
F0.0
sg6
F0.0
sg7
F0.0
ssI20
(dp341
g4
I0
sg5
F0.0
sg6
F0.0
sg7
F0.0
ssI30
(dp342
g4
I0
sg5
F0.0
sg6
F0.0
sg7
F0.0
ssssI2
(dp343
I0
(dp344
I0
(dp345
g4
I0
sg5
F0.0
sg6
F0.0
sg7
F0.0
ssI40
(dp346
g4
I0
sg5
F0.0
sg6
F0.0
sg7
F0.0
ssI10
(dp347
g4
I0
sg5
F0.0
sg6
F0.0
sg7
F0.0
ssI50
(dp348
g4
I0
sg5
F0.0
sg6
F0.0
sg7
F0.0
ssI20
(dp349
g4
I0
sg5
F0.0
sg6
F0.0
sg7
F0.0
ssI30
(dp350
g4
I0
sg5
F0.0
sg6
F0.0
sg7
F0.0
sssI1
(dp351
I0
(dp352
g4
I0
sg5
F0.0
sg6
F0.0
sg7
F0.0
ssI40
(dp353
g4
I0
sg5
F0.0
sg6
F0.0
sg7
F0.0
ssI10
(dp354
g4
I0
sg5
F0.0
sg6
F0.0
sg7
F0.0
ssI50
(dp355
g4
I0
sg5
F0.0
sg6
F0.0
sg7
F0.0
ssI20
(dp356
g4
I0
sg5
F0.0
sg6
F0.0
sg7
F0.0
ssI30
(dp357
g4
I0
sg5
F0.0
sg6
F0.0
sg7
F0.0
sssI2
(dp358
I0
(dp359
g4
I0
sg5
F0.0
sg6
F0.0
sg7
F0.0
ssI40
(dp360
g4
I0
sg5
F0.0
sg6
F0.0
sg7
F0.0
ssI10
(dp361
g4
I0
sg5
F0.0
sg6
F0.0
sg7
F0.0
ssI50
(dp362
g4
I0
sg5
F0.0
sg6
F0.0
sg7
F0.0
ssI20
(dp363
g4
I0
sg5
F0.0
sg6
F0.0
sg7
F0.0
ssI30
(dp364
g4
I0
sg5
F0.0
sg6
F0.0
sg7
F0.0
sssI3
(dp365
I0
(dp366
g4
I0
sg5
F0.0
sg6
F0.0
sg7
F0.0
ssI40
(dp367
g4
I0
sg5
F0.0
sg6
F0.0
sg7
F0.0
ssI10
(dp368
g4
I0
sg5
F0.0
sg6
F0.0
sg7
F0.0
ssI50
(dp369
g4
I0
sg5
F0.0
sg6
F0.0
sg7
F0.0
ssI20
(dp370
g4
I0
sg5
F0.0
sg6
F0.0
sg7
F0.0
ssI30
(dp371
g4
I0
sg5
F0.0
sg6
F0.0
sg7
F0.0
sssI4
(dp372
I0
(dp373
g4
I0
sg5
F0.0
sg6
F0.0
sg7
F0.0
ssI40
(dp374
g4
I0
sg5
F0.0
sg6
F0.0
sg7
F0.0
ssI10
(dp375
g4
I0
sg5
F0.0
sg6
F0.0
sg7
F0.0
ssI50
(dp376
g4
I0
sg5
F0.0
sg6
F0.0
sg7
F0.0
ssI20
(dp377
g4
I0
sg5
F0.0
sg6
F0.0
sg7
F0.0
ssI30
(dp378
g4
I0
sg5
F0.0
sg6
F0.0
sg7
F0.0
sssI5
(dp379
I0
(dp380
g4
I0
sg5
F0.0
sg6
F0.0
sg7
F0.0
ssI40
(dp381
g4
I0
sg5
F0.0
sg6
F0.0
sg7
F0.0
ssI10
(dp382
g4
I0
sg5
F0.0
sg6
F0.0
sg7
F0.0
ssI50
(dp383
g4
I0
sg5
F0.0
sg6
F0.0
sg7
F0.0
ssI20
(dp384
g4
I0
sg5
F0.0
sg6
F0.0
sg7
F0.0
ssI30
(dp385
g4
I0
sg5
F0.0
sg6
F0.0
sg7
F0.0
sssI6
(dp386
I0
(dp387
g4
I0
sg5
F0.0
sg6
F0.0
sg7
F0.0
ssI40
(dp388
g4
I0
sg5
F0.0
sg6
F0.0
sg7
F0.0
ssI10
(dp389
g4
I0
sg5
F0.0
sg6
F0.0
sg7
F0.0
ssI50
(dp390
g4
I0
sg5
F0.0
sg6
F0.0
sg7
F0.0
ssI20
(dp391
g4
I0
sg5
F0.0
sg6
F0.0
sg7
F0.0
ssI30
(dp392
g4
I0
sg5
F0.0
sg6
F0.0
sg7
F0.0
sssI7
(dp393
I0
(dp394
g4
I0
sg5
F0.0
sg6
F0.0
sg7
F0.0
ssI40
(dp395
g4
I0
sg5
F0.0
sg6
F0.0
sg7
F0.0
ssI10
(dp396
g4
I0
sg5
F0.0
sg6
F0.0
sg7
F0.0
ssI50
(dp397
g4
I0
sg5
F0.0
sg6
F0.0
sg7
F0.0
ssI20
(dp398
g4
I0
sg5
F0.0
sg6
F0.0
sg7
F0.0
ssI30
(dp399
g4
I0
sg5
F0.0
sg6
F0.0
sg7
F0.0
sssI8
(dp400
I0
(dp401
g4
I38
sg5
F380.21052631578937
sg6
F1.3157894736842106
sg7
F50.0
ssI40
(dp402
g4
I35
sg5
F318.2857142857142
sg6
F1.8571428571428577
sg7
F65.0
ssI10
(dp403
g4
I35
sg5
F514.6857142857143
sg6
F1.4571428571428566
sg7
F51.0
ssI50
(dp404
g4
I36
sg5
F486.0000000000001
sg6
F1.9999999999999998
sg7
F72.0
ssI20
(dp405
g4
I34
sg5
F200.9705882352941
sg6
F0.9705882352941176
sg7
F33.0
ssI30
(dp406
g4
I34
sg5
F488.11764705882354
sg6
F2.235294117647059
sg7
F76.0
sssI9
(dp407
I0
(dp408
g4
I35
sg5
F465.54285714285703
sg6
F1.6857142857142857
sg7
F59.0
ssI40
(dp409
g4
I35
sg5
F48.285714285714285
sg6
F1.1428571428571426
sg7
F40.0
ssI10
(dp410
g4
I36
sg5
F226.22222222222217
sg6
F1.2222222222222219
sg7
F44.0
ssI50
(dp411
g4
I35
sg5
F81.88571428571427
sg6
F1.0571428571428576
sg7
F37.0
ssI20
(dp412
g4
I35
sg5
F266.7428571428572
sg6
F1.5142857142857145
sg7
F53.0
ssI30
(dp413
g4
I35
sg5
F204.74285714285716
sg6
F2.0857142857142854
sg7
F73.0
sssI10
(dp414
I0
(dp415
g4
I33
sg5
F28.969696969696972
sg6
F0.9696969696969697
sg7
F32.0
ssI40
(dp416
g4
I34
sg5
F54.38235294117647
sg6
F1.4411764705882348
sg7
F49.0
ssI10
(dp417
g4
I35
sg5
F97.54285714285717
sg6
F1.114285714285714
sg7
F39.0
ssI50
(dp418
g4
I35
sg5
F162.74285714285708
sg6
F1.5142857142857147
sg7
F53.0
ssI20
(dp419
g4
I34
sg5
F52.97058823529412
sg6
F1.0294117647058825
sg7
F35.0
ssI30
(dp420
g4
I35
sg5
F132.28571428571428
sg6
F1.857142857142857
sg7
F65.0
sssI11
(dp421
I0
(dp422
g4
I34
sg5
F206.23529411764707
sg6
F1.4117647058823528
sg7
F48.0
ssI40
(dp423
g4
I35
sg5
F52.000000000000014
sg6
F1.0000000000000002
sg7
F35.0
ssI10
(dp424
g4
I36
sg5
F33.638888888888886
sg6
F0.6944444444444445
sg7
F25.0
ssI50
(dp425
g4
I35
sg5
F20.17142857142857
sg6
F0.6285714285714287
sg7
F22.0
ssI20
(dp426
g4
I35
sg5
F278.742857142857
sg6
F1.485714285714286
sg7
F52.0
ssI30
(dp427
g4
I35
sg5
F176.17142857142858
sg6
F1.3714285714285719
sg7
F48.0
sssI12
(dp428
I0
(dp429
g4
I35
sg5
F221.88571428571433
sg6
F1.0571428571428576
sg7
F37.0
ssI40
(dp430
g4
I34
sg5
F318.0000000000001
sg6
F1.0000000000000004
sg7
F34.0
ssI10
(dp431
g4
I34
sg5
F231.5588235294117
sg6
F1.2058823529411764
sg7
F41.0
ssI50
(dp432
g4
I35
sg5
F342.1714285714287
sg6
F1.3714285714285714
sg7
F48.0
ssI20
(dp433
g4
I35
sg5
F279.54285714285714
sg6
F0.8857142857142857
sg7
F31.0
ssI30
(dp434
g4
I35
sg5
F266.57142857142856
sg6
F1.4285714285714282
sg7
F50.0
sssI13
(dp435
I0
(dp436
g4
I35
sg5
F190.97142857142856
sg6
F0.9714285714285716
sg7
F34.0
ssI40
(dp437
g4
I34
sg5
F198.73529411764704
sg6
F0.9117647058823529
sg7
F31.0
ssI10
(dp438
g4
I35
sg5
F123.60000000000002
sg6
F0.8000000000000002
sg7
F28.0
ssI50
(dp439
g4
I34
sg5
F194.61764705882356
sg6
F0.7352941176470589
sg7
F25.0
ssI20
(dp440
g4
I34
sg5
F166.94117647058826
sg6
F0.8235294117647061
sg7
F28.0
ssI30
(dp441
g4
I34
sg5
F107.88235294117644
sg6
F0.9411764705882355
sg7
F32.0
sssI14
(dp442
I0
(dp443
g4
I35
sg5
F105.88571428571427
sg6
F0.6571428571428571
sg7
F23.0
ssI40
(dp444
g4
I36
sg5
F206.30555555555554
sg6
F1.1388888888888888
sg7
F41.0
ssI10
(dp445
g4
I35
sg5
F140.57142857142853
sg6
F0.42857142857142866
sg7
F15.0
ssI50
(dp446
g4
I36
sg5
F174.30555555555554
sg6
F1.1388888888888888
sg7
F41.0
ssI20
(dp447
g4
I35
sg5
F164.17142857142855
sg6
F0.6285714285714286
sg7
F22.0
ssI30
(dp448
g4
I36
sg5
F178.99999999999997
sg6
F1.166666666666667
sg7
F42.0
sssI15
(dp449
I0
(dp450
g4
I36
sg5
F165.55555555555557
sg6
F0.8888888888888888
sg7
F32.0
ssI40
(dp451
g4
I35
sg5
F240.97142857142856
sg6
F1.0285714285714287
sg7
F36.0
ssI10
(dp452
g4
I36
sg5
F173.55555555555557
sg6
F0.8888888888888887
sg7
F32.0
ssI50
(dp453
g4
I35
sg5
F291.8857142857142
sg6
F1.3428571428571425
sg7
F47.0
ssI20
(dp454
g4
I36
sg5
F155.63888888888883
sg6
F0.6944444444444442
sg7
F25.0
ssI30
(dp455
g4
I36
sg5
F170.30555555555554
sg6
F1.1388888888888888
sg7
F41.0
sssI16
(dp456
I0
(dp457
g4
I38
sg5
F38.31578947368422
sg6
F0.7894736842105263
sg7
F30.0
ssI40
(dp458
g4
I35
sg5
F38.000000000000014
sg6
F1.0
sg7
F35.0
ssI10
(dp459
g4
I35
sg5
F131.1428571428571
sg6
F0.7142857142857141
sg7
F25.0
ssI50
(dp460
g4
I35
sg5
F16.171428571428567
sg6
F0.37142857142857133
sg7
F13.0
ssI20
(dp461
g4
I36
sg5
F230.00000000000003
sg6
F1.0000000000000002
sg7
F36.0
ssI30
(dp462
g4
I36
sg5
F310.5555555555556
sg6
F1.6111111111111114
sg7
F58.0
sssI17
(dp463
I0
(dp464
g4
I35
sg5
F10.17142857142857
sg6
F0.22857142857142862
sg7
F8.0
ssI40
(dp465
g4
I36
sg5
F50.305555555555564
sg6
F0.8611111111111112
sg7
F31.0
ssI10
(dp466
g4
I35
sg5
F7.142857142857144
sg6
F0.2857142857142857
sg7
F10.0
ssI50
(dp467
g4
I36
sg5
F11.638888888888891
sg6
F0.19444444444444445
sg7
F7.0
ssI20
(dp468
g4
I35
sg5
F26.68571428571429
sg6
F0.5428571428571428
sg7
F19.0
ssI30
(dp469
g4
I36
sg5
F45.00000000000001
sg6
F0.8333333333333335
sg7
F30.0
sssI18
(dp470
I0
(dp471
g4
I37
sg5
F14.918918918918916
sg6
F0.4054054054054053
sg7
F15.0
ssI40
(dp472
g4
I36
sg5
F6.999999999999999
sg6
F0.16666666666666669
sg7
F6.0
ssI10
(dp473
g4
I36
sg5
F11.222222222222221
sg6
F0.27777777777777773
sg7
F10.0
ssI50
(dp474
g4
I36
sg5
F2.7499999999999996
sg6
F0.08333333333333334
sg7
F3.0
ssI20
(dp475
g4
I35
sg5
F1.8857142857142852
sg6
F0.05714285714285714
sg7
F2.0
ssI30
(dp476
g4
I36
sg5
F11.222222222222223
sg6
F0.2777777777777778
sg7
F10.0
sssI19
(dp477
I0
(dp478
g4
I37
sg5
F12.270270270270268
sg6
F0.2162162162162163
sg7
F8.0
ssI40
(dp479
g4
I36
sg5
F5.638888888888889
sg6
F0.19444444444444445
sg7
F7.0
ssI10
(dp480
g4
I35
sg5
F2.742857142857143
sg6
F0.08571428571428573
sg7
F3.0
ssI50
(dp481
g4
I36
sg5
F5.555555555555556
sg6
F0.11111111111111113
sg7
F4.0
ssI20
(dp482
g4
I36
sg5
F6.999999999999999
sg6
F0.16666666666666669
sg7
F6.0
ssI30
(dp483
g4
I35
sg5
F4.9714285714285715
sg6
F0.17142857142857143
sg7
F6.0
sssI20
(dp484
I0
(dp485
g4
I35
sg5
F2.742857142857143
sg6
F0.08571428571428574
sg7
F3.0
ssI40
(dp486
g4
I36
sg5
F0.0
sg6
F0.0
sg7
F0.0
ssI10
(dp487
g4
I36
sg5
F0.9722222222222221
sg6
F0.027777777777777776
sg7
F1.0
ssI50
(dp488
g4
I36
sg5
F0.9722222222222219
sg6
F0.027777777777777776
sg7
F1.0
ssI20
(dp489
g4
I36
sg5
F0.0
sg6
F0.0
sg7
F0.0
ssI30
(dp490
g4
I36
sg5
F0.0
sg6
F0.0
sg7
F0.0
sssI21
(dp491
I0
(dp492
g4
I35
sg5
F0.0
sg6
F0.0
sg7
F0.0
ssI40
(dp493
g4
I36
sg5
F0.0
sg6
F0.0
sg7
F0.0
ssI10
(dp494
g4
I36
sg5
F0.0
sg6
F0.0
sg7
F0.0
ssI50
(dp495
g4
I36
sg5
F0.0
sg6
F0.0
sg7
F0.0
ssI20
(dp496
g4
I36
sg5
F0.9722222222222222
sg6
F0.027777777777777776
sg7
F1.0
ssI30
(dp497
g4
I36
sg5
F0.0
sg6
F0.0
sg7
F0.0
sssI22
(dp498
I0
(dp499
g4
I0
sg5
F0.0
sg6
F0.0
sg7
F0.0
ssI40
(dp500
g4
I0
sg5
F0.0
sg6
F0.0
sg7
F0.0
ssI10
(dp501
g4
I0
sg5
F0.0
sg6
F0.0
sg7
F0.0
ssI50
(dp502
g4
I0
sg5
F0.0
sg6
F0.0
sg7
F0.0
ssI20
(dp503
g4
I0
sg5
F0.0
sg6
F0.0
sg7
F0.0
ssI30
(dp504
g4
I0
sg5
F0.0
sg6
F0.0
sg7
F0.0
sssI23
(dp505
I0
(dp506
g4
I0
sg5
F0.0
sg6
F0.0
sg7
F0.0
ssI40
(dp507
g4
I0
sg5
F0.0
sg6
F0.0
sg7
F0.0
ssI10
(dp508
g4
I0
sg5
F0.0
sg6
F0.0
sg7
F0.0
ssI50
(dp509
g4
I0
sg5
F0.0
sg6
F0.0
sg7
F0.0
ssI20
(dp510
g4
I0
sg5
F0.0
sg6
F0.0
sg7
F0.0
ssI30
(dp511
g4
I0
sg5
F0.0
sg6
F0.0
sg7
F0.0
ssssI3
(dp512
I0
(dp513
I0
(dp514
g4
I0
sg5
F0.0
sg6
F0.0
sg7
F0.0
ssI40
(dp515
g4
I0
sg5
F0.0
sg6
F0.0
sg7
F0.0
ssI10
(dp516
g4
I0
sg5
F0.0
sg6
F0.0
sg7
F0.0
ssI50
(dp517
g4
I0
sg5
F0.0
sg6
F0.0
sg7
F0.0
ssI20
(dp518
g4
I0
sg5
F0.0
sg6
F0.0
sg7
F0.0
ssI30
(dp519
g4
I0
sg5
F0.0
sg6
F0.0
sg7
F0.0
sssI1
(dp520
I0
(dp521
g4
I0
sg5
F0.0
sg6
F0.0
sg7
F0.0
ssI40
(dp522
g4
I0
sg5
F0.0
sg6
F0.0
sg7
F0.0
ssI10
(dp523
g4
I0
sg5
F0.0
sg6
F0.0
sg7
F0.0
ssI50
(dp524
g4
I0
sg5
F0.0
sg6
F0.0
sg7
F0.0
ssI20
(dp525
g4
I0
sg5
F0.0
sg6
F0.0
sg7
F0.0
ssI30
(dp526
g4
I0
sg5
F0.0
sg6
F0.0
sg7
F0.0
sssI2
(dp527
I0
(dp528
g4
I0
sg5
F0.0
sg6
F0.0
sg7
F0.0
ssI40
(dp529
g4
I0
sg5
F0.0
sg6
F0.0
sg7
F0.0
ssI10
(dp530
g4
I0
sg5
F0.0
sg6
F0.0
sg7
F0.0
ssI50
(dp531
g4
I0
sg5
F0.0
sg6
F0.0
sg7
F0.0
ssI20
(dp532
g4
I0
sg5
F0.0
sg6
F0.0
sg7
F0.0
ssI30
(dp533
g4
I0
sg5
F0.0
sg6
F0.0
sg7
F0.0
sssI3
(dp534
I0
(dp535
g4
I0
sg5
F0.0
sg6
F0.0
sg7
F0.0
ssI40
(dp536
g4
I0
sg5
F0.0
sg6
F0.0
sg7
F0.0
ssI10
(dp537
g4
I0
sg5
F0.0
sg6
F0.0
sg7
F0.0
ssI50
(dp538
g4
I0
sg5
F0.0
sg6
F0.0
sg7
F0.0
ssI20
(dp539
g4
I0
sg5
F0.0
sg6
F0.0
sg7
F0.0
ssI30
(dp540
g4
I0
sg5
F0.0
sg6
F0.0
sg7
F0.0
sssI4
(dp541
I0
(dp542
g4
I0
sg5
F0.0
sg6
F0.0
sg7
F0.0
ssI40
(dp543
g4
I0
sg5
F0.0
sg6
F0.0
sg7
F0.0
ssI10
(dp544
g4
I0
sg5
F0.0
sg6
F0.0
sg7
F0.0
ssI50
(dp545
g4
I0
sg5
F0.0
sg6
F0.0
sg7
F0.0
ssI20
(dp546
g4
I0
sg5
F0.0
sg6
F0.0
sg7
F0.0
ssI30
(dp547
g4
I0
sg5
F0.0
sg6
F0.0
sg7
F0.0
sssI5
(dp548
I0
(dp549
g4
I0
sg5
F0.0
sg6
F0.0
sg7
F0.0
ssI40
(dp550
g4
I0
sg5
F0.0
sg6
F0.0
sg7
F0.0
ssI10
(dp551
g4
I0
sg5
F0.0
sg6
F0.0
sg7
F0.0
ssI50
(dp552
g4
I0
sg5
F0.0
sg6
F0.0
sg7
F0.0
ssI20
(dp553
g4
I0
sg5
F0.0
sg6
F0.0
sg7
F0.0
ssI30
(dp554
g4
I0
sg5
F0.0
sg6
F0.0
sg7
F0.0
sssI6
(dp555
I0
(dp556
g4
I0
sg5
F0.0
sg6
F0.0
sg7
F0.0
ssI40
(dp557
g4
I0
sg5
F0.0
sg6
F0.0
sg7
F0.0
ssI10
(dp558
g4
I0
sg5
F0.0
sg6
F0.0
sg7
F0.0
ssI50
(dp559
g4
I0
sg5
F0.0
sg6
F0.0
sg7
F0.0
ssI20
(dp560
g4
I0
sg5
F0.0
sg6
F0.0
sg7
F0.0
ssI30
(dp561
g4
I0
sg5
F0.0
sg6
F0.0
sg7
F0.0
sssI7
(dp562
I0
(dp563
g4
I0
sg5
F0.0
sg6
F0.0
sg7
F0.0
ssI40
(dp564
g4
I0
sg5
F0.0
sg6
F0.0
sg7
F0.0
ssI10
(dp565
g4
I0
sg5
F0.0
sg6
F0.0
sg7
F0.0
ssI50
(dp566
g4
I0
sg5
F0.0
sg6
F0.0
sg7
F0.0
ssI20
(dp567
g4
I0
sg5
F0.0
sg6
F0.0
sg7
F0.0
ssI30
(dp568
g4
I0
sg5
F0.0
sg6
F0.0
sg7
F0.0
sssI8
(dp569
I0
(dp570
g4
I38
sg5
F25.81578947368422
sg6
F0.7105263157894738
sg7
F27.0
ssI40
(dp571
g4
I40
sg5
F141.37499999999997
sg6
F1.3749999999999998
sg7
F55.0
ssI10
(dp572
g4
I38
sg5
F23.473684210526322
sg6
F0.5263157894736843
sg7
F20.0
ssI50
(dp573
g4
I38
sg5
F88.0
sg6
F1.0000000000000002
sg7
F38.0
ssI20
(dp574
g4
I38
sg5
F44.86842105263158
sg6
F0.7631578947368421
sg7
F29.0
ssI30
(dp575
g4
I39
sg5
F32.76923076923076
sg6
F0.9230769230769228
sg7
F36.0
sssI9
(dp576
I0
(dp577
g4
I37
sg5
F320.70270270270277
sg6
F1.621621621621622
sg7
F60.0
ssI40
(dp578
g4
I39
sg5
F361.0769230769231
sg6
F1.8461538461538467
sg7
F72.0
ssI10
(dp579
g4
I39
sg5
F164.92307692307693
sg6
F1.2307692307692306
sg7
F48.0
ssI50
(dp580
g4
I39
sg5
F564.6666666666666
sg6
F1.6666666666666665
sg7
F65.0
ssI20
(dp581
g4
I38
sg5
F67.99999999999999
sg6
F1.0000000000000002
sg7
F38.0
ssI30
(dp582
g4
I41
sg5
F346.9756097560975
sg6
F2.024390243902439
sg7
F83.0
sssI10
(dp583
I0
(dp584
g4
I38
sg5
F22.842105263157897
sg6
F0.631578947368421
sg7
F24.0
ssI40
(dp585
g4
I37
sg5
F301.02702702702703
sg6
F1.8378378378378382
sg7
F68.0
ssI10
(dp586
g4
I37
sg5
F280.1081081081081
sg6
F1.3243243243243241
sg7
F49.0
ssI50
(dp587
g4
I36
sg5
F104.74999999999999
sg6
F1.4166666666666667
sg7
F51.0
ssI20
(dp588
g4
I38
sg5
F62.21052631578947
sg6
F1.31578947368421
sg7
F50.0
ssI30
(dp589
g4
I38
sg5
F145.89473684210526
sg6
F1.9473684210526312
sg7
F74.0
sssI11
(dp590
I0
(dp591
g4
I35
sg5
F27.142857142857142
sg6
F0.7142857142857141
sg7
F25.0
ssI40
(dp592
g4
I37
sg5
F62.108108108108105
sg6
F1.324324324324324
sg7
F49.0
ssI10
(dp593
g4
I36
sg5
F18.30555555555556
sg6
F0.6388888888888888
sg7
F23.0
ssI50
(dp594
g4
I37
sg5
F24.918918918918923
sg6
F0.5945945945945947
sg7
F22.0
ssI20
(dp595
g4
I37
sg5
F123.02702702702703
sg6
F1.1621621621621623
sg7
F43.0
ssI30
(dp596
g4
I36
sg5
F41.555555555555564
sg6
F0.8888888888888888
sg7
F32.0
sssI12
(dp597
I0
(dp598
g4
I37
sg5
F325.1891891891893
sg6
F1.4594594594594592
sg7
F54.0
ssI40
(dp599
g4
I38
sg5
F102.21052631578948
sg6
F0.6842105263157895
sg7
F26.0
ssI10
(dp600
g4
I36
sg5
F124.30555555555556
sg6
F0.8611111111111112
sg7
F31.0
ssI50
(dp601
g4
I38
sg5
F293.50000000000006
sg6
F1.4999999999999998
sg7
F57.0
ssI20
(dp602
g4
I36
sg5
F29.222222222222225
sg6
F0.7222222222222222
sg7
F26.0
ssI30
(dp603
g4
I38
sg5
F127.57894736842104
sg6
F0.894736842105263
sg7
F34.0
sssI13
(dp604
I0
(dp605
g4
I40
sg5
F273.59999999999997
sg6
F0.8999999999999999
sg7
F36.0
ssI40
(dp606
g4
I38
sg5
F10.552631578947366
sg6
F0.34210526315789475
sg7
F13.0
ssI10
(dp607
g4
I37
sg5
F504.108108108108
sg6
F1.3243243243243243
sg7
F49.0
ssI50
(dp608
g4
I43
sg5
F68.18604651162791
sg6
F0.7441860465116279
sg7
F32.0
ssI20
(dp609
g4
I37
sg5
F491.5675675675675
sg6
F1.1081081081081083
sg7
F41.0
ssI30
(dp610
g4
I37
sg5
F207.99999999999997
sg6
F1.0000000000000002
sg7
F37.0
sssI14
(dp611
I0
(dp612
g4
I47
sg5
F181.2765957446808
sg6
F0.8085106382978725
sg7
F38.0
ssI40
(dp613
g4
I47
sg5
F39.106382978723396
sg6
F0.3829787234042554
sg7
F18.0
ssI10
(dp614
g4
I47
sg5
F85.31914893617021
sg6
F0.40425531914893614
sg7
F19.0
ssI50
(dp615
g4
I47
sg5
F61.10638297872341
sg6
F0.3829787234042553
sg7
F18.0
ssI20
(dp616
g4
I46
sg5
F21.73913043478261
sg6
F0.30434782608695654
sg7
F14.0
ssI30
(dp617
g4
I47
sg5
F27.31914893617022
sg6
F0.4042553191489362
sg7
F19.0
sssI15
(dp618
I0
(dp619
g4
I46
sg5
F79.50000000000001
sg6
F0.49999999999999983
sg7
F23.0
ssI40
(dp620
g4
I46
sg5
F95.30434782608697
sg6
F0.5652173913043479
sg7
F26.0
ssI10
(dp621
g4
I47
sg5
F38.936170212765944
sg6
F0.25531914893617014
sg7
F12.0
ssI50
(dp622
g4
I46
sg5
F120.10869565217394
sg6
F0.6739130434782609
sg7
F31.0
ssI20
(dp623
g4
I46
sg5
F67.32608695652175
sg6
F0.2826086956521738
sg7
F13.0
ssI30
(dp624
g4
I48
sg5
F91.91666666666667
sg6
F0.5416666666666667
sg7
F26.0
sssI16
(dp625
I0
(dp626
g4
I45
sg5
F617.2444444444444
sg6
F1.2888888888888885
sg7
F58.0
ssI40
(dp627
g4
I48
sg5
F522.6666666666667
sg6
F1.3333333333333337
sg7
F64.0
ssI10
(dp628
g4
I47
sg5
F99.82978723404257
sg6
F0.702127659574468
sg7
F33.0
ssI50
(dp629
g4
I46
sg5
F369.9347826086958
sg6
F0.8478260869565217
sg7
F39.0
ssI20
(dp630
g4
I47
sg5
F64.21276595744682
sg6
F0.680851063829787
sg7
F32.0
ssI30
(dp631
g4
I45
sg5
F586.577777777778
sg6
F1.1777777777777774
sg7
F53.0
sssI17
(dp632
I0
(dp633
g4
I46
sg5
F398.6086956521738
sg6
F0.826086956521739
sg7
F38.0
ssI40
(dp634
g4
I50
sg5
F546.9800000000001
sg6
F0.9799999999999999
sg7
F49.0
ssI10
(dp635
g4
I44
sg5
F308.43181818181813
sg6
F0.8863636363636366
sg7
F39.0
ssI50
(dp636
g4
I50
sg5
F583.6199999999997
sg6
F0.7400000000000001
sg7
F37.0
ssI20
(dp637
g4
I46
sg5
F536.6086956521738
sg6
F0.8260869565217395
sg7
F38.0
ssI30
(dp638
g4
I46
sg5
F512.9782608695651
sg6
F0.9782608695652174
sg7
F45.0
sssI18
(dp639
I0
(dp640
g4
I46
sg5
F431.82608695652186
sg6
F0.7826086956521737
sg7
F36.0
ssI40
(dp641
g4
I45
sg5
F528.3111111111108
sg6
F0.7555555555555555
sg7
F34.0
ssI10
(dp642
g4
I46
sg5
F659.7391304347824
sg6
F0.6956521739130433
sg7
F32.0
ssI50
(dp643
g4
I46
sg5
F403.30434782608694
sg6
F0.5652173913043478
sg7
F26.0
ssI20
(dp644
g4
I47
sg5
F344.2127659574467
sg6
F0.6808510638297876
sg7
F32.0
ssI30
(dp645
g4
I47
sg5
F475.8297872340425
sg6
F0.7021276595744681
sg7
F33.0
sssI19
(dp646
I0
(dp647
g4
I47
sg5
F359.61702127659566
sg6
F0.5531914893617021
sg7
F26.0
ssI40
(dp648
g4
I46
sg5
F409.7391304347827
sg6
F0.6956521739130436
sg7
F32.0
ssI10
(dp649
g4
I46
sg5
F403.41304347826093
sg6
F0.5434782608695652
sg7
F25.0
ssI50
(dp650
g4
I46
sg5
F484.9565217391304
sg6
F0.6086956521739132
sg7
F28.0
ssI20
(dp651
g4
I46
sg5
F402.43478260869574
sg6
F0.6521739130434785
sg7
F30.0
ssI30
(dp652
g4
I46
sg5
F484.7173913043477
sg6
F0.6304347826086956
sg7
F29.0
sssI20
(dp653
I0
(dp654
g4
I45
sg5
F412.5777777777777
sg6
F0.6222222222222223
sg7
F28.0
ssI40
(dp655
g4
I46
sg5
F461.1521739130436
sg6
F0.5869565217391303
sg7
F27.0
ssI10
(dp656
g4
I47
sg5
F365.74468085106383
sg6
F0.5106382978723405
sg7
F24.0
ssI50
(dp657
g4
I46
sg5
F421.304347826087
sg6
F0.5652173913043478
sg7
F26.0
ssI20
(dp658
g4
I46
sg5
F295.47826086956525
sg6
F0.4782608695652172
sg7
F22.0
ssI30
(dp659
g4
I46
sg5
F303.4782608695652
sg6
F0.5217391304347825
sg7
F24.0
sssI21
(dp660
I0
(dp661
g4
I46
sg5
F289.30434782608705
sg6
F0.4347826086956523
sg7
F20.0
ssI40
(dp662
g4
I46
sg5
F303.5
sg6
F0.5000000000000001
sg7
F23.0
ssI10
(dp663
g4
I46
sg5
F337.50000000000006
sg6
F0.5000000000000002
sg7
F23.0
ssI50
(dp664
g4
I46
sg5
F303.47826086956525
sg6
F0.4782608695652172
sg7
F22.0
ssI20
(dp665
g4
I47
sg5
F303.7021276595745
sg6
F0.4680851063829785
sg7
F22.0
ssI30
(dp666
g4
I46
sg5
F451.30434782608694
sg6
F0.5652173913043478
sg7
F26.0
sssI22
(dp667
I0
(dp668
g4
I0
sg5
F0.0
sg6
F0.0
sg7
F0.0
ssI40
(dp669
g4
I0
sg5
F0.0
sg6
F0.0
sg7
F0.0
ssI10
(dp670
g4
I0
sg5
F0.0
sg6
F0.0
sg7
F0.0
ssI50
(dp671
g4
I0
sg5
F0.0
sg6
F0.0
sg7
F0.0
ssI20
(dp672
g4
I0
sg5
F0.0
sg6
F0.0
sg7
F0.0
ssI30
(dp673
g4
I0
sg5
F0.0
sg6
F0.0
sg7
F0.0
sssI23
(dp674
I0
(dp675
g4
I0
sg5
F0.0
sg6
F0.0
sg7
F0.0
ssI40
(dp676
g4
I0
sg5
F0.0
sg6
F0.0
sg7
F0.0
ssI10
(dp677
g4
I0
sg5
F0.0
sg6
F0.0
sg7
F0.0
ssI50
(dp678
g4
I0
sg5
F0.0
sg6
F0.0
sg7
F0.0
ssI20
(dp679
g4
I0
sg5
F0.0
sg6
F0.0
sg7
F0.0
ssI30
(dp680
g4
I0
sg5
F0.0
sg6
F0.0
sg7
F0.0
ssssI4
(dp681
I0
(dp682
I0
(dp683
g4
I0
sg5
F0.0
sg6
F0.0
sg7
F0.0
ssI40
(dp684
g4
I0
sg5
F0.0
sg6
F0.0
sg7
F0.0
ssI10
(dp685
g4
I0
sg5
F0.0
sg6
F0.0
sg7
F0.0
ssI50
(dp686
g4
I0
sg5
F0.0
sg6
F0.0
sg7
F0.0
ssI20
(dp687
g4
I0
sg5
F0.0
sg6
F0.0
sg7
F0.0
ssI30
(dp688
g4
I0
sg5
F0.0
sg6
F0.0
sg7
F0.0
sssI1
(dp689
I0
(dp690
g4
I0
sg5
F0.0
sg6
F0.0
sg7
F0.0
ssI40
(dp691
g4
I0
sg5
F0.0
sg6
F0.0
sg7
F0.0
ssI10
(dp692
g4
I0
sg5
F0.0
sg6
F0.0
sg7
F0.0
ssI50
(dp693
g4
I0
sg5
F0.0
sg6
F0.0
sg7
F0.0
ssI20
(dp694
g4
I0
sg5
F0.0
sg6
F0.0
sg7
F0.0
ssI30
(dp695
g4
I0
sg5
F0.0
sg6
F0.0
sg7
F0.0
sssI2
(dp696
I0
(dp697
g4
I0
sg5
F0.0
sg6
F0.0
sg7
F0.0
ssI40
(dp698
g4
I0
sg5
F0.0
sg6
F0.0
sg7
F0.0
ssI10
(dp699
g4
I0
sg5
F0.0
sg6
F0.0
sg7
F0.0
ssI50
(dp700
g4
I0
sg5
F0.0
sg6
F0.0
sg7
F0.0
ssI20
(dp701
g4
I0
sg5
F0.0
sg6
F0.0
sg7
F0.0
ssI30
(dp702
g4
I0
sg5
F0.0
sg6
F0.0
sg7
F0.0
sssI3
(dp703
I0
(dp704
g4
I0
sg5
F0.0
sg6
F0.0
sg7
F0.0
ssI40
(dp705
g4
I0
sg5
F0.0
sg6
F0.0
sg7
F0.0
ssI10
(dp706
g4
I0
sg5
F0.0
sg6
F0.0
sg7
F0.0
ssI50
(dp707
g4
I0
sg5
F0.0
sg6
F0.0
sg7
F0.0
ssI20
(dp708
g4
I0
sg5
F0.0
sg6
F0.0
sg7
F0.0
ssI30
(dp709
g4
I0
sg5
F0.0
sg6
F0.0
sg7
F0.0
sssI4
(dp710
I0
(dp711
g4
I0
sg5
F0.0
sg6
F0.0
sg7
F0.0
ssI40
(dp712
g4
I0
sg5
F0.0
sg6
F0.0
sg7
F0.0
ssI10
(dp713
g4
I0
sg5
F0.0
sg6
F0.0
sg7
F0.0
ssI50
(dp714
g4
I0
sg5
F0.0
sg6
F0.0
sg7
F0.0
ssI20
(dp715
g4
I0
sg5
F0.0
sg6
F0.0
sg7
F0.0
ssI30
(dp716
g4
I0
sg5
F0.0
sg6
F0.0
sg7
F0.0
sssI5
(dp717
I0
(dp718
g4
I0
sg5
F0.0
sg6
F0.0
sg7
F0.0
ssI40
(dp719
g4
I0
sg5
F0.0
sg6
F0.0
sg7
F0.0
ssI10
(dp720
g4
I0
sg5
F0.0
sg6
F0.0
sg7
F0.0
ssI50
(dp721
g4
I0
sg5
F0.0
sg6
F0.0
sg7
F0.0
ssI20
(dp722
g4
I0
sg5
F0.0
sg6
F0.0
sg7
F0.0
ssI30
(dp723
g4
I0
sg5
F0.0
sg6
F0.0
sg7
F0.0
sssI6
(dp724
I0
(dp725
g4
I0
sg5
F0.0
sg6
F0.0
sg7
F0.0
ssI40
(dp726
g4
I0
sg5
F0.0
sg6
F0.0
sg7
F0.0
ssI10
(dp727
g4
I0
sg5
F0.0
sg6
F0.0
sg7
F0.0
ssI50
(dp728
g4
I0
sg5
F0.0
sg6
F0.0
sg7
F0.0
ssI20
(dp729
g4
I0
sg5
F0.0
sg6
F0.0
sg7
F0.0
ssI30
(dp730
g4
I0
sg5
F0.0
sg6
F0.0
sg7
F0.0
sssI7
(dp731
I0
(dp732
g4
I0
sg5
F0.0
sg6
F0.0
sg7
F0.0
ssI40
(dp733
g4
I0
sg5
F0.0
sg6
F0.0
sg7
F0.0
ssI10
(dp734
g4
I0
sg5
F0.0
sg6
F0.0
sg7
F0.0
ssI50
(dp735
g4
I0
sg5
F0.0
sg6
F0.0
sg7
F0.0
ssI20
(dp736
g4
I0
sg5
F0.0
sg6
F0.0
sg7
F0.0
ssI30
(dp737
g4
I0
sg5
F0.0
sg6
F0.0
sg7
F0.0
sssI8
(dp738
I0
(dp739
g4
I47
sg5
F551.8297872340424
sg6
F1.2978723404255321
sg7
F61.0
ssI40
(dp740
g4
I45
sg5
F570.8
sg6
F1.4000000000000001
sg7
F63.0
ssI10
(dp741
g4
I46
sg5
F391.9999999999999
sg6
F1.0
sg7
F46.0
ssI50
(dp742
g4
I46
sg5
F422.45652173913044
sg6
F1.1086956521739129
sg7
F51.0
ssI20
(dp743
g4
I45
sg5
F654.9777777777778
sg6
F1.4222222222222223
sg7
F64.0
ssI30
(dp744
g4
I45
sg5
F500.31111111111113
sg6
F1.3555555555555554
sg7
F61.0
sssI9
(dp745
I0
(dp746
g4
I46
sg5
F746.1086956521742
sg6
F1.326086956521739
sg7
F61.0
ssI40
(dp747
g4
I46
sg5
F558.4347826086954
sg6
F1.6521739130434783
sg7
F76.0
ssI10
(dp748
g4
I46
sg5
F421.8260869565218
sg6
F1.217391304347826
sg7
F56.0
ssI50
(dp749
g4
I46
sg5
F232.36956521739123
sg6
F0.7608695652173912
sg7
F35.0
ssI20
(dp750
g4
I47
sg5
F330.97872340425533
sg6
F0.978723404255319
sg7
F46.0
ssI30
(dp751
g4
I48
sg5
F565.8124999999998
sg6
F1.4375
sg7
F69.0
sssI10
(dp752
I0
(dp753
g4
I47
sg5
F942.4255319148933
sg6
F1.2340425531914891
sg7
F58.0
ssI40
(dp754
g4
I48
sg5
F85.66666666666667
sg6
F1.0833333333333337
sg7
F52.0
ssI10
(dp755
g4
I49
sg5
F313.6734693877551
sg6
F1.0816326530612244
sg7
F53.0
ssI50
(dp756
g4
I49
sg5
F362.4897959183673
sg6
F1.1020408163265305
sg7
F54.0
ssI20
(dp757
g4
I48
sg5
F478.81250000000017
sg6
F0.9374999999999997
sg7
F45.0
ssI30
(dp758
g4
I49
sg5
F85.26530612244895
sg6
F1.1224489795918366
sg7
F55.0
sssI11
(dp759
I0
(dp760
g4
I48
sg5
F188.66666666666666
sg6
F0.8333333333333337
sg7
F40.0
ssI40
(dp761
g4
I49
sg5
F874.0000000000001
sg6
F1.5714285714285714
sg7
F77.0
ssI10
(dp762
g4
I49
sg5
F747.5510204081635
sg6
F1.2653061224489794
sg7
F62.0
ssI50
(dp763
g4
I49
sg5
F812.1224489795919
sg6
F1.448979591836735
sg7
F71.0
ssI20
(dp764
g4
I48
sg5
F1059.2499999999993
sg6
F1.1249999999999998
sg7
F54.0
ssI30
(dp765
g4
I49
sg5
F899.3877551020407
sg6
F1.6326530612244898
sg7
F80.0
sssI12
(dp766
I0
(dp767
g4
I48
sg5
F45.8125
sg6
F0.5625
sg7
F27.0
ssI40
(dp768
g4
I49
sg5
F128.0
sg6
F0.7142857142857142
sg7
F35.0
ssI10
(dp769
g4
I47
sg5
F19.48936170212766
sg6
F0.4255319148936169
sg7
F20.0
ssI50
(dp770
g4
I48
sg5
F114.97916666666669
sg6
F0.9791666666666666
sg7
F47.0
ssI20
(dp771
g4
I49
sg5
F117.0612244897959
sg6
F0.7551020408163266
sg7
F37.0
ssI30
(dp772
g4
I48
sg5
F119.91666666666664
sg6
F0.7083333333333331
sg7
F34.0
sssI13
(dp773
I0
(dp774
g4
I50
sg5
F98.50000000000001
sg6
F0.4999999999999999
sg7
F25.0
ssI40
(dp775
g4
I47
sg5
F82.55319148936168
sg6
F0.34042553191489355
sg7
F16.0
ssI10
(dp776
g4
I47
sg5
F79.74468085106383
sg6
F0.5106382978723404
sg7
F24.0
ssI50
(dp777
g4
I48
sg5
F100.66666666666664
sg6
F0.33333333333333337
sg7
F16.0
ssI20
(dp778
g4
I47
sg5
F87.10638297872342
sg6
F0.3829787234042552
sg7
F18.0
ssI30
(dp779
g4
I47
sg5
F68.21276595744682
sg6
F0.31914893617021284
sg7
F15.0
sssI14
(dp780
I0
(dp781
g4
I46
sg5
F86.43478260869568
sg6
F0.3478260869565218
sg7
F16.0
ssI40
(dp782
g4
I48
sg5
F168.31249999999997
sg6
F0.6875000000000001
sg7
F33.0
ssI10
(dp783
g4
I48
sg5
F79.91666666666671
sg6
F0.2083333333333333
sg7
F10.0
ssI50
(dp784
g4
I47
sg5
F129.82978723404258
sg6
F0.7021276595744684
sg7
F33.0
ssI20
(dp785
g4
I47
sg5
F69.82978723404256
sg6
F0.29787234042553196
sg7
F14.0
ssI30
(dp786
g4
I49
sg5
F152.2448979591837
sg6
F0.48979591836734676
sg7
F24.0
sssI15
(dp787
I0
(dp788
g4
I47
sg5
F142.21276595744683
sg6
F0.6808510638297872
sg7
F32.0
ssI40
(dp789
g4
I49
sg5
F142.24489795918367
sg6
F0.5102040816326531
sg7
F25.0
ssI10
(dp790
g4
I47
sg5
F144.8510638297872
sg6
F0.3617021276595744
sg7
F17.0
ssI50
(dp791
g4
I47
sg5
F67.48936170212767
sg6
F0.42553191489361697
sg7
F20.0
ssI20
(dp792
g4
I48
sg5
F126.31249999999999
sg6
F0.3125000000000001
sg7
F15.0
ssI30
(dp793
g4
I48
sg5
F104.97916666666667
sg6
F0.35416666666666663
sg7
F17.0
sssI16
(dp794
I0
(dp795
g4
I43
sg5
F29.069767441860463
sg6
F0.3023255813953488
sg7
F13.0
ssI40
(dp796
g4
I48
sg5
F65.99999999999997
sg6
F0.49999999999999983
sg7
F24.0
ssI10
(dp797
g4
I48
sg5
F25.0
sg6
F0.24999999999999992
sg7
F12.0
ssI50
(dp798
g4
I48
sg5
F27.916666666666664
sg6
F0.20833333333333337
sg7
F10.0
ssI20
(dp799
g4
I48
sg5
F37.25000000000001
sg6
F0.3749999999999999
sg7
F18.0
ssI30
(dp800
g4
I48
sg5
F65.91666666666669
sg6
F0.4583333333333332
sg7
F22.0
sssI17
(dp801
I0
(dp802
g4
I38
sg5
F9.368421052631582
sg6
F0.26315789473684215
sg7
F10.0
ssI40
(dp803
g4
I38
sg5
F793.3684210526311
sg6
F1.263157894736842
sg7
F48.0
ssI10
(dp804
g4
I38
sg5
F67.4736842105263
sg6
F0.4736842105263159
sg7
F18.0
ssI50
(dp805
g4
I38
sg5
F67.26315789473686
sg6
F0.42105263157894735
sg7
F16.0
ssI20
(dp806
g4
I37
sg5
F42.432432432432435
sg6
F0.35135135135135126
sg7
F13.0
ssI30
(dp807
g4
I38
sg5
F1063.0526315789475
sg6
F1.1578947368421049
sg7
F44.0
sssI18
(dp808
I0
(dp809
g4
I38
sg5
F107.26315789473682
sg6
F0.4210526315789475
sg7
F16.0
ssI40
(dp810
g4
I37
sg5
F233.72972972972977
sg6
F0.7027027027027029
sg7
F26.0
ssI10
(dp811
g4
I39
sg5
F141.7435897435897
sg6
F0.48717948717948717
sg7
F19.0
ssI50
(dp812
g4
I37
sg5
F174.8108108108108
sg6
F0.7567567567567568
sg7
F28.0
ssI20
(dp813
g4
I40
sg5
F47.775
sg6
F0.175
sg7
F7.0
ssI30
(dp814
g4
I37
sg5
F54.43243243243243
sg6
F0.3513513513513514
sg7
F13.0
sssI19
(dp815
I0
(dp816
g4
I37
sg5
F291.2972972972973
sg6
F0.7297297297297298
sg7
F27.0
ssI40
(dp817
g4
I37
sg5
F92.7027027027027
sg6
F0.6216216216216216
sg7
F23.0
ssI10
(dp818
g4
I37
sg5
F293.6756756756757
sg6
F0.8108108108108107
sg7
F30.0
ssI50
(dp819
g4
I37
sg5
F197.18918918918922
sg6
F0.5405405405405406
sg7
F20.0
ssI20
(dp820
g4
I37
sg5
F248.1081081081081
sg6
F0.6756756756756758
sg7
F25.0
ssI30
(dp821
g4
I37
sg5
F399.56756756756755
sg6
F0.891891891891892
sg7
F33.0
sssI20
(dp822
I0
(dp823
g4
I37
sg5
F221.1891891891892
sg6
F0.5405405405405406
sg7
F20.0
ssI40
(dp824
g4
I37
sg5
F48.27027027027027
sg6
F0.21621621621621623
sg7
F8.0
ssI10
(dp825
g4
I37
sg5
F50.810810810810814
sg6
F0.24324324324324328
sg7
F9.0
ssI50
(dp826
g4
I37
sg5
F47.67567567567567
sg6
F0.1891891891891892
sg7
F7.0
ssI20
(dp827
g4
I37
sg5
F38.27027027027027
sg6
F0.21621621621621623
sg7
F8.0
ssI30
(dp828
g4
I37
sg5
F48.27027027027027
sg6
F0.21621621621621623
sg7
F8.0
sssI21
(dp829
I0
(dp830
g4
I37
sg5
F47.67567567567567
sg6
F0.1891891891891892
sg7
F7.0
ssI40
(dp831
g4
I37
sg5
F48.27027027027027
sg6
F0.21621621621621623
sg7
F8.0
ssI10
(dp832
g4
I37
sg5
F47.67567567567567
sg6
F0.1891891891891892
sg7
F7.0
ssI50
(dp833
g4
I37
sg5
F47.67567567567567
sg6
F0.1891891891891892
sg7
F7.0
ssI20
(dp834
g4
I37
sg5
F48.27027027027027
sg6
F0.21621621621621623
sg7
F8.0
ssI30
(dp835
g4
I37
sg5
F35.027027027027025
sg6
F0.16216216216216214
sg7
F6.0
sssI22
(dp836
I0
(dp837
g4
I0
sg5
F0.0
sg6
F0.0
sg7
F0.0
ssI40
(dp838
g4
I0
sg5
F0.0
sg6
F0.0
sg7
F0.0
ssI10
(dp839
g4
I0
sg5
F0.0
sg6
F0.0
sg7
F0.0
ssI50
(dp840
g4
I0
sg5
F0.0
sg6
F0.0
sg7
F0.0
ssI20
(dp841
g4
I0
sg5
F0.0
sg6
F0.0
sg7
F0.0
ssI30
(dp842
g4
I0
sg5
F0.0
sg6
F0.0
sg7
F0.0
sssI23
(dp843
I0
(dp844
g4
I0
sg5
F0.0
sg6
F0.0
sg7
F0.0
ssI40
(dp845
g4
I0
sg5
F0.0
sg6
F0.0
sg7
F0.0
ssI10
(dp846
g4
I0
sg5
F0.0
sg6
F0.0
sg7
F0.0
ssI50
(dp847
g4
I0
sg5
F0.0
sg6
F0.0
sg7
F0.0
ssI20
(dp848
g4
I0
sg5
F0.0
sg6
F0.0
sg7
F0.0
ssI30
(dp849
g4
I0
sg5
F0.0
sg6
F0.0
sg7
F0.0
ssssI5
(dp850
I0
(dp851
I0
(dp852
g4
I0
sg5
F0.0
sg6
F0.0
sg7
F0.0
ssI40
(dp853
g4
I0
sg5
F0.0
sg6
F0.0
sg7
F0.0
ssI10
(dp854
g4
I0
sg5
F0.0
sg6
F0.0
sg7
F0.0
ssI50
(dp855
g4
I0
sg5
F0.0
sg6
F0.0
sg7
F0.0
ssI20
(dp856
g4
I0
sg5
F0.0
sg6
F0.0
sg7
F0.0
ssI30
(dp857
g4
I0
sg5
F0.0
sg6
F0.0
sg7
F0.0
sssI1
(dp858
I0
(dp859
g4
I0
sg5
F0.0
sg6
F0.0
sg7
F0.0
ssI40
(dp860
g4
I0
sg5
F0.0
sg6
F0.0
sg7
F0.0
ssI10
(dp861
g4
I0
sg5
F0.0
sg6
F0.0
sg7
F0.0
ssI50
(dp862
g4
I0
sg5
F0.0
sg6
F0.0
sg7
F0.0
ssI20
(dp863
g4
I0
sg5
F0.0
sg6
F0.0
sg7
F0.0
ssI30
(dp864
g4
I0
sg5
F0.0
sg6
F0.0
sg7
F0.0
sssI2
(dp865
I0
(dp866
g4
I0
sg5
F0.0
sg6
F0.0
sg7
F0.0
ssI40
(dp867
g4
I0
sg5
F0.0
sg6
F0.0
sg7
F0.0
ssI10
(dp868
g4
I0
sg5
F0.0
sg6
F0.0
sg7
F0.0
ssI50
(dp869
g4
I0
sg5
F0.0
sg6
F0.0
sg7
F0.0
ssI20
(dp870
g4
I0
sg5
F0.0
sg6
F0.0
sg7
F0.0
ssI30
(dp871
g4
I0
sg5
F0.0
sg6
F0.0
sg7
F0.0
sssI3
(dp872
I0
(dp873
g4
I0
sg5
F0.0
sg6
F0.0
sg7
F0.0
ssI40
(dp874
g4
I0
sg5
F0.0
sg6
F0.0
sg7
F0.0
ssI10
(dp875
g4
I0
sg5
F0.0
sg6
F0.0
sg7
F0.0
ssI50
(dp876
g4
I0
sg5
F0.0
sg6
F0.0
sg7
F0.0
ssI20
(dp877
g4
I0
sg5
F0.0
sg6
F0.0
sg7
F0.0
ssI30
(dp878
g4
I0
sg5
F0.0
sg6
F0.0
sg7
F0.0
sssI4
(dp879
I0
(dp880
g4
I0
sg5
F0.0
sg6
F0.0
sg7
F0.0
ssI40
(dp881
g4
I0
sg5
F0.0
sg6
F0.0
sg7
F0.0
ssI10
(dp882
g4
I0
sg5
F0.0
sg6
F0.0
sg7
F0.0
ssI50
(dp883
g4
I0
sg5
F0.0
sg6
F0.0
sg7
F0.0
ssI20
(dp884
g4
I0
sg5
F0.0
sg6
F0.0
sg7
F0.0
ssI30
(dp885
g4
I0
sg5
F0.0
sg6
F0.0
sg7
F0.0
sssI5
(dp886
I0
(dp887
g4
I0
sg5
F0.0
sg6
F0.0
sg7
F0.0
ssI40
(dp888
g4
I0
sg5
F0.0
sg6
F0.0
sg7
F0.0
ssI10
(dp889
g4
I0
sg5
F0.0
sg6
F0.0
sg7
F0.0
ssI50
(dp890
g4
I0
sg5
F0.0
sg6
F0.0
sg7
F0.0
ssI20
(dp891
g4
I0
sg5
F0.0
sg6
F0.0
sg7
F0.0
ssI30
(dp892
g4
I0
sg5
F0.0
sg6
F0.0
sg7
F0.0
sssI6
(dp893
I0
(dp894
g4
I0
sg5
F0.0
sg6
F0.0
sg7
F0.0
ssI40
(dp895
g4
I0
sg5
F0.0
sg6
F0.0
sg7
F0.0
ssI10
(dp896
g4
I0
sg5
F0.0
sg6
F0.0
sg7
F0.0
ssI50
(dp897
g4
I0
sg5
F0.0
sg6
F0.0
sg7
F0.0
ssI20
(dp898
g4
I0
sg5
F0.0
sg6
F0.0
sg7
F0.0
ssI30
(dp899
g4
I0
sg5
F0.0
sg6
F0.0
sg7
F0.0
sssI7
(dp900
I0
(dp901
g4
I0
sg5
F0.0
sg6
F0.0
sg7
F0.0
ssI40
(dp902
g4
I0
sg5
F0.0
sg6
F0.0
sg7
F0.0
ssI10
(dp903
g4
I0
sg5
F0.0
sg6
F0.0
sg7
F0.0
ssI50
(dp904
g4
I0
sg5
F0.0
sg6
F0.0
sg7
F0.0
ssI20
(dp905
g4
I0
sg5
F0.0
sg6
F0.0
sg7
F0.0
ssI30
(dp906
g4
I0
sg5
F0.0
sg6
F0.0
sg7
F0.0
sssI8
(dp907
I0
(dp908
g4
I0
sg5
F0.0
sg6
F0.0
sg7
F0.0
ssI40
(dp909
g4
I0
sg5
F0.0
sg6
F0.0
sg7
F0.0
ssI10
(dp910
g4
I0
sg5
F0.0
sg6
F0.0
sg7
F0.0
ssI50
(dp911
g4
I0
sg5
F0.0
sg6
F0.0
sg7
F0.0
ssI20
(dp912
g4
I0
sg5
F0.0
sg6
F0.0
sg7
F0.0
ssI30
(dp913
g4
I0
sg5
F0.0
sg6
F0.0
sg7
F0.0
sssI9
(dp914
I0
(dp915
g4
I0
sg5
F0.0
sg6
F0.0
sg7
F0.0
ssI40
(dp916
g4
I0
sg5
F0.0
sg6
F0.0
sg7
F0.0
ssI10
(dp917
g4
I0
sg5
F0.0
sg6
F0.0
sg7
F0.0
ssI50
(dp918
g4
I0
sg5
F0.0
sg6
F0.0
sg7
F0.0
ssI20
(dp919
g4
I0
sg5
F0.0
sg6
F0.0
sg7
F0.0
ssI30
(dp920
g4
I0
sg5
F0.0
sg6
F0.0
sg7
F0.0
sssI10
(dp921
I0
(dp922
g4
I0
sg5
F0.0
sg6
F0.0
sg7
F0.0
ssI40
(dp923
g4
I0
sg5
F0.0
sg6
F0.0
sg7
F0.0
ssI10
(dp924
g4
I0
sg5
F0.0
sg6
F0.0
sg7
F0.0
ssI50
(dp925
g4
I0
sg5
F0.0
sg6
F0.0
sg7
F0.0
ssI20
(dp926
g4
I0
sg5
F0.0
sg6
F0.0
sg7
F0.0
ssI30
(dp927
g4
I0
sg5
F0.0
sg6
F0.0
sg7
F0.0
sssI11
(dp928
I0
(dp929
g4
I0
sg5
F0.0
sg6
F0.0
sg7
F0.0
ssI40
(dp930
g4
I0
sg5
F0.0
sg6
F0.0
sg7
F0.0
ssI10
(dp931
g4
I0
sg5
F0.0
sg6
F0.0
sg7
F0.0
ssI50
(dp932
g4
I0
sg5
F0.0
sg6
F0.0
sg7
F0.0
ssI20
(dp933
g4
I0
sg5
F0.0
sg6
F0.0
sg7
F0.0
ssI30
(dp934
g4
I0
sg5
F0.0
sg6
F0.0
sg7
F0.0
sssI12
(dp935
I0
(dp936
g4
I0
sg5
F0.0
sg6
F0.0
sg7
F0.0
ssI40
(dp937
g4
I0
sg5
F0.0
sg6
F0.0
sg7
F0.0
ssI10
(dp938
g4
I0
sg5
F0.0
sg6
F0.0
sg7
F0.0
ssI50
(dp939
g4
I0
sg5
F0.0
sg6
F0.0
sg7
F0.0
ssI20
(dp940
g4
I0
sg5
F0.0
sg6
F0.0
sg7
F0.0
ssI30
(dp941
g4
I0
sg5
F0.0
sg6
F0.0
sg7
F0.0
sssI13
(dp942
I0
(dp943
g4
I0
sg5
F0.0
sg6
F0.0
sg7
F0.0
ssI40
(dp944
g4
I0
sg5
F0.0
sg6
F0.0
sg7
F0.0
ssI10
(dp945
g4
I0
sg5
F0.0
sg6
F0.0
sg7
F0.0
ssI50
(dp946
g4
I0
sg5
F0.0
sg6
F0.0
sg7
F0.0
ssI20
(dp947
g4
I0
sg5
F0.0
sg6
F0.0
sg7
F0.0
ssI30
(dp948
g4
I0
sg5
F0.0
sg6
F0.0
sg7
F0.0
sssI14
(dp949
I0
(dp950
g4
I0
sg5
F0.0
sg6
F0.0
sg7
F0.0
ssI40
(dp951
g4
I0
sg5
F0.0
sg6
F0.0
sg7
F0.0
ssI10
(dp952
g4
I0
sg5
F0.0
sg6
F0.0
sg7
F0.0
ssI50
(dp953
g4
I0
sg5
F0.0
sg6
F0.0
sg7
F0.0
ssI20
(dp954
g4
I0
sg5
F0.0
sg6
F0.0
sg7
F0.0
ssI30
(dp955
g4
I0
sg5
F0.0
sg6
F0.0
sg7
F0.0
sssI15
(dp956
I0
(dp957
g4
I0
sg5
F0.0
sg6
F0.0
sg7
F0.0
ssI40
(dp958
g4
I0
sg5
F0.0
sg6
F0.0
sg7
F0.0
ssI10
(dp959
g4
I0
sg5
F0.0
sg6
F0.0
sg7
F0.0
ssI50
(dp960
g4
I0
sg5
F0.0
sg6
F0.0
sg7
F0.0
ssI20
(dp961
g4
I0
sg5
F0.0
sg6
F0.0
sg7
F0.0
ssI30
(dp962
g4
I0
sg5
F0.0
sg6
F0.0
sg7
F0.0
sssI16
(dp963
I0
(dp964
g4
I0
sg5
F0.0
sg6
F0.0
sg7
F0.0
ssI40
(dp965
g4
I0
sg5
F0.0
sg6
F0.0
sg7
F0.0
ssI10
(dp966
g4
I0
sg5
F0.0
sg6
F0.0
sg7
F0.0
ssI50
(dp967
g4
I0
sg5
F0.0
sg6
F0.0
sg7
F0.0
ssI20
(dp968
g4
I0
sg5
F0.0
sg6
F0.0
sg7
F0.0
ssI30
(dp969
g4
I0
sg5
F0.0
sg6
F0.0
sg7
F0.0
sssI17
(dp970
I0
(dp971
g4
I0
sg5
F0.0
sg6
F0.0
sg7
F0.0
ssI40
(dp972
g4
I0
sg5
F0.0
sg6
F0.0
sg7
F0.0
ssI10
(dp973
g4
I0
sg5
F0.0
sg6
F0.0
sg7
F0.0
ssI50
(dp974
g4
I0
sg5
F0.0
sg6
F0.0
sg7
F0.0
ssI20
(dp975
g4
I0
sg5
F0.0
sg6
F0.0
sg7
F0.0
ssI30
(dp976
g4
I0
sg5
F0.0
sg6
F0.0
sg7
F0.0
sssI18
(dp977
I0
(dp978
g4
I0
sg5
F0.0
sg6
F0.0
sg7
F0.0
ssI40
(dp979
g4
I0
sg5
F0.0
sg6
F0.0
sg7
F0.0
ssI10
(dp980
g4
I0
sg5
F0.0
sg6
F0.0
sg7
F0.0
ssI50
(dp981
g4
I0
sg5
F0.0
sg6
F0.0
sg7
F0.0
ssI20
(dp982
g4
I0
sg5
F0.0
sg6
F0.0
sg7
F0.0
ssI30
(dp983
g4
I0
sg5
F0.0
sg6
F0.0
sg7
F0.0
sssI19
(dp984
I0
(dp985
g4
I0
sg5
F0.0
sg6
F0.0
sg7
F0.0
ssI40
(dp986
g4
I0
sg5
F0.0
sg6
F0.0
sg7
F0.0
ssI10
(dp987
g4
I0
sg5
F0.0
sg6
F0.0
sg7
F0.0
ssI50
(dp988
g4
I0
sg5
F0.0
sg6
F0.0
sg7
F0.0
ssI20
(dp989
g4
I0
sg5
F0.0
sg6
F0.0
sg7
F0.0
ssI30
(dp990
g4
I0
sg5
F0.0
sg6
F0.0
sg7
F0.0
sssI20
(dp991
I0
(dp992
g4
I0
sg5
F0.0
sg6
F0.0
sg7
F0.0
ssI40
(dp993
g4
I0
sg5
F0.0
sg6
F0.0
sg7
F0.0
ssI10
(dp994
g4
I0
sg5
F0.0
sg6
F0.0
sg7
F0.0
ssI50
(dp995
g4
I0
sg5
F0.0
sg6
F0.0
sg7
F0.0
ssI20
(dp996
g4
I0
sg5
F0.0
sg6
F0.0
sg7
F0.0
ssI30
(dp997
g4
I0
sg5
F0.0
sg6
F0.0
sg7
F0.0
sssI21
(dp998
I0
(dp999
g4
I0
sg5
F0.0
sg6
F0.0
sg7
F0.0
ssI40
(dp1000
g4
I0
sg5
F0.0
sg6
F0.0
sg7
F0.0
ssI10
(dp1001
g4
I0
sg5
F0.0
sg6
F0.0
sg7
F0.0
ssI50
(dp1002
g4
I0
sg5
F0.0
sg6
F0.0
sg7
F0.0
ssI20
(dp1003
g4
I0
sg5
F0.0
sg6
F0.0
sg7
F0.0
ssI30
(dp1004
g4
I0
sg5
F0.0
sg6
F0.0
sg7
F0.0
sssI22
(dp1005
I0
(dp1006
g4
I0
sg5
F0.0
sg6
F0.0
sg7
F0.0
ssI40
(dp1007
g4
I0
sg5
F0.0
sg6
F0.0
sg7
F0.0
ssI10
(dp1008
g4
I0
sg5
F0.0
sg6
F0.0
sg7
F0.0
ssI50
(dp1009
g4
I0
sg5
F0.0
sg6
F0.0
sg7
F0.0
ssI20
(dp1010
g4
I0
sg5
F0.0
sg6
F0.0
sg7
F0.0
ssI30
(dp1011
g4
I0
sg5
F0.0
sg6
F0.0
sg7
F0.0
sssI23
(dp1012
I0
(dp1013
g4
I0
sg5
F0.0
sg6
F0.0
sg7
F0.0
ssI40
(dp1014
g4
I0
sg5
F0.0
sg6
F0.0
sg7
F0.0
ssI10
(dp1015
g4
I0
sg5
F0.0
sg6
F0.0
sg7
F0.0
ssI50
(dp1016
g4
I0
sg5
F0.0
sg6
F0.0
sg7
F0.0
ssI20
(dp1017
g4
I0
sg5
F0.0
sg6
F0.0
sg7
F0.0
ssI30
(dp1018
g4
I0
sg5
F0.0
sg6
F0.0
sg7
F0.0
ssssI6
(dp1019
I0
(dp1020
I0
(dp1021
g4
I0
sg5
F0.0
sg6
F0.0
sg7
F0.0
ssI40
(dp1022
g4
I0
sg5
F0.0
sg6
F0.0
sg7
F0.0
ssI10
(dp1023
g4
I0
sg5
F0.0
sg6
F0.0
sg7
F0.0
ssI50
(dp1024
g4
I0
sg5
F0.0
sg6
F0.0
sg7
F0.0
ssI20
(dp1025
g4
I0
sg5
F0.0
sg6
F0.0
sg7
F0.0
ssI30
(dp1026
g4
I0
sg5
F0.0
sg6
F0.0
sg7
F0.0
sssI1
(dp1027
I0
(dp1028
g4
I0
sg5
F0.0
sg6
F0.0
sg7
F0.0
ssI40
(dp1029
g4
I0
sg5
F0.0
sg6
F0.0
sg7
F0.0
ssI10
(dp1030
g4
I0
sg5
F0.0
sg6
F0.0
sg7
F0.0
ssI50
(dp1031
g4
I0
sg5
F0.0
sg6
F0.0
sg7
F0.0
ssI20
(dp1032
g4
I0
sg5
F0.0
sg6
F0.0
sg7
F0.0
ssI30
(dp1033
g4
I0
sg5
F0.0
sg6
F0.0
sg7
F0.0
sssI2
(dp1034
I0
(dp1035
g4
I0
sg5
F0.0
sg6
F0.0
sg7
F0.0
ssI40
(dp1036
g4
I0
sg5
F0.0
sg6
F0.0
sg7
F0.0
ssI10
(dp1037
g4
I0
sg5
F0.0
sg6
F0.0
sg7
F0.0
ssI50
(dp1038
g4
I0
sg5
F0.0
sg6
F0.0
sg7
F0.0
ssI20
(dp1039
g4
I0
sg5
F0.0
sg6
F0.0
sg7
F0.0
ssI30
(dp1040
g4
I0
sg5
F0.0
sg6
F0.0
sg7
F0.0
sssI3
(dp1041
I0
(dp1042
g4
I0
sg5
F0.0
sg6
F0.0
sg7
F0.0
ssI40
(dp1043
g4
I0
sg5
F0.0
sg6
F0.0
sg7
F0.0
ssI10
(dp1044
g4
I0
sg5
F0.0
sg6
F0.0
sg7
F0.0
ssI50
(dp1045
g4
I0
sg5
F0.0
sg6
F0.0
sg7
F0.0
ssI20
(dp1046
g4
I0
sg5
F0.0
sg6
F0.0
sg7
F0.0
ssI30
(dp1047
g4
I0
sg5
F0.0
sg6
F0.0
sg7
F0.0
sssI4
(dp1048
I0
(dp1049
g4
I0
sg5
F0.0
sg6
F0.0
sg7
F0.0
ssI40
(dp1050
g4
I0
sg5
F0.0
sg6
F0.0
sg7
F0.0
ssI10
(dp1051
g4
I0
sg5
F0.0
sg6
F0.0
sg7
F0.0
ssI50
(dp1052
g4
I0
sg5
F0.0
sg6
F0.0
sg7
F0.0
ssI20
(dp1053
g4
I0
sg5
F0.0
sg6
F0.0
sg7
F0.0
ssI30
(dp1054
g4
I0
sg5
F0.0
sg6
F0.0
sg7
F0.0
sssI5
(dp1055
I0
(dp1056
g4
I0
sg5
F0.0
sg6
F0.0
sg7
F0.0
ssI40
(dp1057
g4
I0
sg5
F0.0
sg6
F0.0
sg7
F0.0
ssI10
(dp1058
g4
I0
sg5
F0.0
sg6
F0.0
sg7
F0.0
ssI50
(dp1059
g4
I0
sg5
F0.0
sg6
F0.0
sg7
F0.0
ssI20
(dp1060
g4
I0
sg5
F0.0
sg6
F0.0
sg7
F0.0
ssI30
(dp1061
g4
I0
sg5
F0.0
sg6
F0.0
sg7
F0.0
sssI6
(dp1062
I0
(dp1063
g4
I0
sg5
F0.0
sg6
F0.0
sg7
F0.0
ssI40
(dp1064
g4
I0
sg5
F0.0
sg6
F0.0
sg7
F0.0
ssI10
(dp1065
g4
I0
sg5
F0.0
sg6
F0.0
sg7
F0.0
ssI50
(dp1066
g4
I0
sg5
F0.0
sg6
F0.0
sg7
F0.0
ssI20
(dp1067
g4
I0
sg5
F0.0
sg6
F0.0
sg7
F0.0
ssI30
(dp1068
g4
I0
sg5
F0.0
sg6
F0.0
sg7
F0.0
sssI7
(dp1069
I0
(dp1070
g4
I0
sg5
F0.0
sg6
F0.0
sg7
F0.0
ssI40
(dp1071
g4
I0
sg5
F0.0
sg6
F0.0
sg7
F0.0
ssI10
(dp1072
g4
I0
sg5
F0.0
sg6
F0.0
sg7
F0.0
ssI50
(dp1073
g4
I0
sg5
F0.0
sg6
F0.0
sg7
F0.0
ssI20
(dp1074
g4
I0
sg5
F0.0
sg6
F0.0
sg7
F0.0
ssI30
(dp1075
g4
I0
sg5
F0.0
sg6
F0.0
sg7
F0.0
sssI8
(dp1076
I0
(dp1077
g4
I0
sg5
F0.0
sg6
F0.0
sg7
F0.0
ssI40
(dp1078
g4
I0
sg5
F0.0
sg6
F0.0
sg7
F0.0
ssI10
(dp1079
g4
I0
sg5
F0.0
sg6
F0.0
sg7
F0.0
ssI50
(dp1080
g4
I0
sg5
F0.0
sg6
F0.0
sg7
F0.0
ssI20
(dp1081
g4
I0
sg5
F0.0
sg6
F0.0
sg7
F0.0
ssI30
(dp1082
g4
I0
sg5
F0.0
sg6
F0.0
sg7
F0.0
sssI9
(dp1083
I0
(dp1084
g4
I0
sg5
F0.0
sg6
F0.0
sg7
F0.0
ssI40
(dp1085
g4
I0
sg5
F0.0
sg6
F0.0
sg7
F0.0
ssI10
(dp1086
g4
I0
sg5
F0.0
sg6
F0.0
sg7
F0.0
ssI50
(dp1087
g4
I0
sg5
F0.0
sg6
F0.0
sg7
F0.0
ssI20
(dp1088
g4
I0
sg5
F0.0
sg6
F0.0
sg7
F0.0
ssI30
(dp1089
g4
I0
sg5
F0.0
sg6
F0.0
sg7
F0.0
sssI10
(dp1090
I0
(dp1091
g4
I0
sg5
F0.0
sg6
F0.0
sg7
F0.0
ssI40
(dp1092
g4
I0
sg5
F0.0
sg6
F0.0
sg7
F0.0
ssI10
(dp1093
g4
I0
sg5
F0.0
sg6
F0.0
sg7
F0.0
ssI50
(dp1094
g4
I0
sg5
F0.0
sg6
F0.0
sg7
F0.0
ssI20
(dp1095
g4
I0
sg5
F0.0
sg6
F0.0
sg7
F0.0
ssI30
(dp1096
g4
I0
sg5
F0.0
sg6
F0.0
sg7
F0.0
sssI11
(dp1097
I0
(dp1098
g4
I0
sg5
F0.0
sg6
F0.0
sg7
F0.0
ssI40
(dp1099
g4
I0
sg5
F0.0
sg6
F0.0
sg7
F0.0
ssI10
(dp1100
g4
I0
sg5
F0.0
sg6
F0.0
sg7
F0.0
ssI50
(dp1101
g4
I0
sg5
F0.0
sg6
F0.0
sg7
F0.0
ssI20
(dp1102
g4
I0
sg5
F0.0
sg6
F0.0
sg7
F0.0
ssI30
(dp1103
g4
I0
sg5
F0.0
sg6
F0.0
sg7
F0.0
sssI12
(dp1104
I0
(dp1105
g4
I0
sg5
F0.0
sg6
F0.0
sg7
F0.0
ssI40
(dp1106
g4
I0
sg5
F0.0
sg6
F0.0
sg7
F0.0
ssI10
(dp1107
g4
I0
sg5
F0.0
sg6
F0.0
sg7
F0.0
ssI50
(dp1108
g4
I0
sg5
F0.0
sg6
F0.0
sg7
F0.0
ssI20
(dp1109
g4
I0
sg5
F0.0
sg6
F0.0
sg7
F0.0
ssI30
(dp1110
g4
I0
sg5
F0.0
sg6
F0.0
sg7
F0.0
sssI13
(dp1111
I0
(dp1112
g4
I0
sg5
F0.0
sg6
F0.0
sg7
F0.0
ssI40
(dp1113
g4
I0
sg5
F0.0
sg6
F0.0
sg7
F0.0
ssI10
(dp1114
g4
I0
sg5
F0.0
sg6
F0.0
sg7
F0.0
ssI50
(dp1115
g4
I0
sg5
F0.0
sg6
F0.0
sg7
F0.0
ssI20
(dp1116
g4
I0
sg5
F0.0
sg6
F0.0
sg7
F0.0
ssI30
(dp1117
g4
I0
sg5
F0.0
sg6
F0.0
sg7
F0.0
sssI14
(dp1118
I0
(dp1119
g4
I0
sg5
F0.0
sg6
F0.0
sg7
F0.0
ssI40
(dp1120
g4
I0
sg5
F0.0
sg6
F0.0
sg7
F0.0
ssI10
(dp1121
g4
I0
sg5
F0.0
sg6
F0.0
sg7
F0.0
ssI50
(dp1122
g4
I0
sg5
F0.0
sg6
F0.0
sg7
F0.0
ssI20
(dp1123
g4
I0
sg5
F0.0
sg6
F0.0
sg7
F0.0
ssI30
(dp1124
g4
I0
sg5
F0.0
sg6
F0.0
sg7
F0.0
sssI15
(dp1125
I0
(dp1126
g4
I0
sg5
F0.0
sg6
F0.0
sg7
F0.0
ssI40
(dp1127
g4
I0
sg5
F0.0
sg6
F0.0
sg7
F0.0
ssI10
(dp1128
g4
I0
sg5
F0.0
sg6
F0.0
sg7
F0.0
ssI50
(dp1129
g4
I0
sg5
F0.0
sg6
F0.0
sg7
F0.0
ssI20
(dp1130
g4
I0
sg5
F0.0
sg6
F0.0
sg7
F0.0
ssI30
(dp1131
g4
I0
sg5
F0.0
sg6
F0.0
sg7
F0.0
sssI16
(dp1132
I0
(dp1133
g4
I0
sg5
F0.0
sg6
F0.0
sg7
F0.0
ssI40
(dp1134
g4
I0
sg5
F0.0
sg6
F0.0
sg7
F0.0
ssI10
(dp1135
g4
I0
sg5
F0.0
sg6
F0.0
sg7
F0.0
ssI50
(dp1136
g4
I0
sg5
F0.0
sg6
F0.0
sg7
F0.0
ssI20
(dp1137
g4
I0
sg5
F0.0
sg6
F0.0
sg7
F0.0
ssI30
(dp1138
g4
I0
sg5
F0.0
sg6
F0.0
sg7
F0.0
sssI17
(dp1139
I0
(dp1140
g4
I0
sg5
F0.0
sg6
F0.0
sg7
F0.0
ssI40
(dp1141
g4
I0
sg5
F0.0
sg6
F0.0
sg7
F0.0
ssI10
(dp1142
g4
I0
sg5
F0.0
sg6
F0.0
sg7
F0.0
ssI50
(dp1143
g4
I0
sg5
F0.0
sg6
F0.0
sg7
F0.0
ssI20
(dp1144
g4
I0
sg5
F0.0
sg6
F0.0
sg7
F0.0
ssI30
(dp1145
g4
I0
sg5
F0.0
sg6
F0.0
sg7
F0.0
sssI18
(dp1146
I0
(dp1147
g4
I0
sg5
F0.0
sg6
F0.0
sg7
F0.0
ssI40
(dp1148
g4
I0
sg5
F0.0
sg6
F0.0
sg7
F0.0
ssI10
(dp1149
g4
I0
sg5
F0.0
sg6
F0.0
sg7
F0.0
ssI50
(dp1150
g4
I0
sg5
F0.0
sg6
F0.0
sg7
F0.0
ssI20
(dp1151
g4
I0
sg5
F0.0
sg6
F0.0
sg7
F0.0
ssI30
(dp1152
g4
I0
sg5
F0.0
sg6
F0.0
sg7
F0.0
sssI19
(dp1153
I0
(dp1154
g4
I0
sg5
F0.0
sg6
F0.0
sg7
F0.0
ssI40
(dp1155
g4
I0
sg5
F0.0
sg6
F0.0
sg7
F0.0
ssI10
(dp1156
g4
I0
sg5
F0.0
sg6
F0.0
sg7
F0.0
ssI50
(dp1157
g4
I0
sg5
F0.0
sg6
F0.0
sg7
F0.0
ssI20
(dp1158
g4
I0
sg5
F0.0
sg6
F0.0
sg7
F0.0
ssI30
(dp1159
g4
I0
sg5
F0.0
sg6
F0.0
sg7
F0.0
sssI20
(dp1160
I0
(dp1161
g4
I0
sg5
F0.0
sg6
F0.0
sg7
F0.0
ssI40
(dp1162
g4
I0
sg5
F0.0
sg6
F0.0
sg7
F0.0
ssI10
(dp1163
g4
I0
sg5
F0.0
sg6
F0.0
sg7
F0.0
ssI50
(dp1164
g4
I0
sg5
F0.0
sg6
F0.0
sg7
F0.0
ssI20
(dp1165
g4
I0
sg5
F0.0
sg6
F0.0
sg7
F0.0
ssI30
(dp1166
g4
I0
sg5
F0.0
sg6
F0.0
sg7
F0.0
sssI21
(dp1167
I0
(dp1168
g4
I0
sg5
F0.0
sg6
F0.0
sg7
F0.0
ssI40
(dp1169
g4
I0
sg5
F0.0
sg6
F0.0
sg7
F0.0
ssI10
(dp1170
g4
I0
sg5
F0.0
sg6
F0.0
sg7
F0.0
ssI50
(dp1171
g4
I0
sg5
F0.0
sg6
F0.0
sg7
F0.0
ssI20
(dp1172
g4
I0
sg5
F0.0
sg6
F0.0
sg7
F0.0
ssI30
(dp1173
g4
I0
sg5
F0.0
sg6
F0.0
sg7
F0.0
sssI22
(dp1174
I0
(dp1175
g4
I0
sg5
F0.0
sg6
F0.0
sg7
F0.0
ssI40
(dp1176
g4
I0
sg5
F0.0
sg6
F0.0
sg7
F0.0
ssI10
(dp1177
g4
I0
sg5
F0.0
sg6
F0.0
sg7
F0.0
ssI50
(dp1178
g4
I0
sg5
F0.0
sg6
F0.0
sg7
F0.0
ssI20
(dp1179
g4
I0
sg5
F0.0
sg6
F0.0
sg7
F0.0
ssI30
(dp1180
g4
I0
sg5
F0.0
sg6
F0.0
sg7
F0.0
sssI23
(dp1181
I0
(dp1182
g4
I0
sg5
F0.0
sg6
F0.0
sg7
F0.0
ssI40
(dp1183
g4
I0
sg5
F0.0
sg6
F0.0
sg7
F0.0
ssI10
(dp1184
g4
I0
sg5
F0.0
sg6
F0.0
sg7
F0.0
ssI50
(dp1185
g4
I0
sg5
F0.0
sg6
F0.0
sg7
F0.0
ssI20
(dp1186
g4
I0
sg5
F0.0
sg6
F0.0
sg7
F0.0
ssI30
(dp1187
g4
I0
sg5
F0.0
sg6
F0.0
sg7
F0.0
ssss.